source_filename = "test"
target datalayout = "e-m:e-p:64:64-i64:64-f80:128-n8:16:32:64-S128"

@global_var_4fd0 = local_unnamed_addr global i64 0
@global_var_3006 = constant [3 x i8] c"c1\00"
@global_var_300d = constant [4 x i8] c"c10\00"
@global_var_3011 = constant [3 x i8] c"c9\00"
@global_var_3014 = constant [3 x i8] c"c8\00"
@global_var_3017 = constant [3 x i8] c"c7\00"
@global_var_301a = constant [3 x i8] c"c6\00"
@global_var_301d = constant [3 x i8] c"c5\00"
@global_var_3020 = constant [3 x i8] c"c4\00"
@global_var_3023 = constant [3 x i8] c"c3\00"
@global_var_3026 = constant [3 x i8] c"c2\00"
@global_var_3029 = constant [26 x i8] c"Program 1 print maxargs:\0A\00"
@global_var_3043 = constant [26 x i8] c"Program 2 print maxargs:\0A\00"
@global_var_305d = constant [12 x i8] c"Program 1:\0A\00"
@global_var_3069 = constant [12 x i8] c"Program 2:\0A\00"
@global_var_3080 = constant [34 x i8] c"void* checked_malloc(std::size_t)\00"
@global_var_30a2 = constant [14 x i8] c"src/utils.cpp\00"
@0 = external global i32
@global_var_5150 = local_unnamed_addr global i8 0
@global_var_5040 = global i64* (i64*)* null
@1 = internal constant [2 x i8] c" \00"
@2 = constant i8* getelementptr inbounds ([2 x i8], [2 x i8]* @1, i64 0, i64 0)
@3 = internal constant [2 x i8] c"b\00"
@4 = constant i8* getelementptr inbounds ([2 x i8], [2 x i8]* @3, i64 0, i64 0)
@5 = internal constant [2 x i8] c"a\00"
@6 = constant i8* getelementptr inbounds ([2 x i8], [2 x i8]* @5, i64 0, i64 0)
@7 = internal constant [2 x i8] c"p\00"
@8 = constant i8* getelementptr inbounds ([2 x i8], [2 x i8]* @7, i64 0, i64 0)
@global_var_3004 = constant [2 x i8] c" \00"
@global_var_3009 = constant [2 x i8] c"b\00"
@global_var_300b = constant [2 x i8] c"a\00"
@global_var_30b0 = constant [2 x i8] c"p\00"

define i64 @_init() local_unnamed_addr {
dec_label_pc_1000:
  %rax.0.reg2mem = alloca i64, !insn.addr !0
  %0 = load i64, i64* inttoptr (i64 20464 to i64*), align 16, !insn.addr !1
  %1 = icmp eq i64 %0, 0, !insn.addr !2
  store i64 0, i64* %rax.0.reg2mem, !insn.addr !3
  br i1 %1, label %dec_label_pc_1016, label %dec_label_pc_1014, !insn.addr !3

dec_label_pc_1014:                                ; preds = %dec_label_pc_1000
  call void @__gmon_start__(), !insn.addr !4
  store i64 ptrtoint (i32* @0 to i64), i64* %rax.0.reg2mem, !insn.addr !4
  br label %dec_label_pc_1016, !insn.addr !4

dec_label_pc_1016:                                ; preds = %dec_label_pc_1014, %dec_label_pc_1000
  %rax.0.reload = load i64, i64* %rax.0.reg2mem
  ret i64 %rax.0.reload, !insn.addr !5
}

define void @function_10c0(i64* %d) local_unnamed_addr {
dec_label_pc_10c0:
  call void @__cxa_finalize(i64* %d), !insn.addr !6
  ret void, !insn.addr !6
}

define i32 @function_10d0(i8* %s) local_unnamed_addr {
dec_label_pc_10d0:
  %0 = call i32 @strlen(i8* %s), !insn.addr !7
  ret i32 %0, !insn.addr !7
}

define void @function_10e0(i8* %assertion, i8* %file, i32 %line, i8* %function) local_unnamed_addr {
dec_label_pc_10e0:
  call void @__assert_fail(i8* %assertion, i8* %file, i32 %line, i8* %function), !insn.addr !8
  ret void, !insn.addr !8
}

define i8* @function_10f0(i8* %dest, i8* %src) local_unnamed_addr {
dec_label_pc_10f0:
  %0 = call i8* @strcpy(i8* %dest, i8* %src), !insn.addr !9
  ret i8* %0, !insn.addr !9
}

define i64 @function_1100(i64* %arg1, i8* %arg2) local_unnamed_addr {
dec_label_pc_1100:
  %0 = call i64 @_ZStlsISt11char_traitsIcEERSt13basic_ostreamIcT_ES5_PKc(i64* %arg1, i8* %arg2), !insn.addr !10
  ret i64 %0, !insn.addr !10
}

define i64 @function_1110(i64* (i64*)* %arg1) local_unnamed_addr {
dec_label_pc_1110:
  %0 = call i64 @_ZNSolsEPFRSoS_E(i64* (i64*)* %arg1), !insn.addr !11
  ret i64 %0, !insn.addr !11
}

define void @function_1120() local_unnamed_addr {
dec_label_pc_1120:
  call void @__stack_chk_fail(), !insn.addr !12
  ret void, !insn.addr !12
}

define i64* @function_1130(i32 %size) local_unnamed_addr {
dec_label_pc_1130:
  %0 = call i64* @malloc(i32 %size), !insn.addr !13
  ret i64* %0, !insn.addr !13
}

define i32 @function_1140(i8* %s1, i8* %s2) local_unnamed_addr {
dec_label_pc_1140:
  %0 = call i32 @strcmp(i8* %s1, i8* %s2), !insn.addr !14
  ret i32 %0, !insn.addr !14
}

define i64 @function_1150(i32 %arg1) local_unnamed_addr {
dec_label_pc_1150:
  %0 = call i64 @_ZNSolsEi(i32 %arg1), !insn.addr !15
  ret i64 %0, !insn.addr !15
}

define i64 @_start(i64 %arg1, i64 %arg2, i64 %arg3, i64 %arg4, i64 %arg5, i64 %arg6) local_unnamed_addr {
dec_label_pc_1160:
  %stack_var_8 = alloca i64, align 8
  %0 = trunc i64 %arg6 to i32, !insn.addr !16
  %1 = bitcast i64* %stack_var_8 to i8**, !insn.addr !16
  %2 = inttoptr i64 %arg3 to void ()*, !insn.addr !16
  %3 = call i32 @__libc_start_main(i64 7905, i32 %0, i8** nonnull %1, void ()* null, void ()* null, void ()* %2), !insn.addr !16
  %4 = call i64 @__asm_hlt(), !insn.addr !17
  unreachable, !insn.addr !17
}

define i64 @deregister_tm_clones() local_unnamed_addr {
dec_label_pc_1190:
  ret i64 20496, !insn.addr !18
}

define i64 @register_tm_clones() local_unnamed_addr {
dec_label_pc_11c0:
  ret i64 0, !insn.addr !19
}

define i64 @__do_global_dtors_aux() local_unnamed_addr {
dec_label_pc_1200:
  %0 = alloca i64
  %1 = load i64, i64* %0
  %2 = load i8, i8* @global_var_5150, align 1, !insn.addr !20
  %3 = icmp eq i8 %2, 0, !insn.addr !20
  %4 = icmp eq i1 %3, false, !insn.addr !21
  br i1 %4, label %dec_label_pc_1238, label %dec_label_pc_120d, !insn.addr !21

dec_label_pc_120d:                                ; preds = %dec_label_pc_1200
  %5 = load i64, i64* @global_var_4fd0, align 8, !insn.addr !22
  %6 = icmp eq i64 %5, 0, !insn.addr !22
  br i1 %6, label %dec_label_pc_1227, label %dec_label_pc_121b, !insn.addr !23

dec_label_pc_121b:                                ; preds = %dec_label_pc_120d
  %7 = load i64, i64* inttoptr (i64 20488 to i64*), align 8, !insn.addr !24
  %8 = inttoptr i64 %7 to i64*, !insn.addr !25
  call void @__cxa_finalize(i64* %8), !insn.addr !25
  br label %dec_label_pc_1227, !insn.addr !25

dec_label_pc_1227:                                ; preds = %dec_label_pc_121b, %dec_label_pc_120d
  %9 = call i64 @deregister_tm_clones(), !insn.addr !26
  store i8 1, i8* @global_var_5150, align 1, !insn.addr !27
  ret i64 %9, !insn.addr !28

dec_label_pc_1238:                                ; preds = %dec_label_pc_1200
  ret i64 %1, !insn.addr !29

; uselistorder directives
  uselistorder i8* @global_var_5150, { 1, 0 }
}

define i64 @frame_dummy() local_unnamed_addr {
dec_label_pc_1240:
  %0 = call i64 @register_tm_clones(), !insn.addr !30
  ret i64 %0, !insn.addr !30
}

define i32* @_Z5TablePKciP5table(i8* %arg1, i32 %arg2, i64* %arg3) local_unnamed_addr {
dec_label_pc_1249:
  %0 = ptrtoint i64* %arg3 to i64
  %1 = call i8* @_Z14checked_mallocm(i64 24), !insn.addr !31
  %2 = ptrtoint i8* %1 to i64, !insn.addr !31
  %3 = ptrtoint i8* %arg1 to i64, !insn.addr !32
  %4 = bitcast i8* %1 to i64*, !insn.addr !33
  store i64 %3, i64* %4, align 8, !insn.addr !33
  %5 = add i64 %2, 8, !insn.addr !34
  %6 = inttoptr i64 %5 to i32*, !insn.addr !34
  store i32 %arg2, i32* %6, align 4, !insn.addr !34
  %7 = add i64 %2, 16, !insn.addr !35
  %8 = inttoptr i64 %7 to i64*, !insn.addr !35
  store i64 %0, i64* %8, align 8, !insn.addr !35
  %9 = bitcast i8* %1 to i32*, !insn.addr !36
  ret i32* %9, !insn.addr !36
}

define void @_Z8update_eP6A_exp_RiS1_RbS2_(i64* %arg1, i32* %arg2, i32* %arg3, i1* %arg4, i1* %arg5) local_unnamed_addr {
dec_label_pc_1295:
  %0 = alloca i64
  %1 = load i64, i64* %0
  %2 = ptrtoint i64* %arg1 to i64
  %3 = trunc i64 %1 to i32
  %4 = icmp eq i32 %3, 2, !insn.addr !37
  %5 = icmp eq i1 %4, false, !insn.addr !38
  br i1 %5, label %dec_label_pc_131d, label %dec_label_pc_12c0, !insn.addr !38

dec_label_pc_12c0:                                ; preds = %dec_label_pc_1295
  %6 = bitcast i1* %arg5 to i8*
  store i8 0, i8* %6, align 1, !insn.addr !39
  %7 = add i64 %2, 8, !insn.addr !40
  %8 = inttoptr i64 %7 to i64*, !insn.addr !40
  %9 = load i64, i64* %8, align 8, !insn.addr !40
  %10 = add i64 %2, 24, !insn.addr !41
  %11 = inttoptr i64 %10 to i64*, !insn.addr !41
  %12 = load i64, i64* %11, align 8, !insn.addr !41
  %13 = inttoptr i64 %9 to i64*, !insn.addr !42
  call void @_Z8update_eP6A_exp_RiS1_RbS2_(i64* %13, i32* %arg2, i32* %arg3, i1* %arg4, i1* %arg5), !insn.addr !42
  %14 = inttoptr i64 %12 to i64*, !insn.addr !43
  call void @_Z8update_eP6A_exp_RiS1_RbS2_(i64* %14, i32* %arg2, i32* %arg3, i1* %arg4, i1* %arg5), !insn.addr !43
  br label %dec_label_pc_131d, !insn.addr !43

dec_label_pc_131d:                                ; preds = %dec_label_pc_12c0, %dec_label_pc_1295
  %15 = icmp eq i32 %3, 3, !insn.addr !44
  %16 = icmp eq i1 %15, false, !insn.addr !45
  br i1 %16, label %dec_label_pc_1385, label %dec_label_pc_1328, !insn.addr !45

dec_label_pc_1328:                                ; preds = %dec_label_pc_131d
  %17 = bitcast i1* %arg5 to i8*
  store i8 0, i8* %17, align 1, !insn.addr !46
  %18 = add i64 %2, 8, !insn.addr !47
  %19 = inttoptr i64 %18 to i64*, !insn.addr !47
  %20 = load i64, i64* %19, align 8, !insn.addr !47
  %21 = add i64 %2, 16, !insn.addr !48
  %22 = inttoptr i64 %21 to i64*, !insn.addr !48
  %23 = load i64, i64* %22, align 8, !insn.addr !48
  %24 = inttoptr i64 %20 to i64*, !insn.addr !49
  call void @_Z8update_sP6A_stm_RiS1_RbS2_(i64* %24, i32* %arg2, i32* %arg3, i1* %arg4, i1* %arg5), !insn.addr !49
  %25 = inttoptr i64 %23 to i64*, !insn.addr !50
  call void @_Z8update_eP6A_exp_RiS1_RbS2_(i64* %25, i32* %arg2, i32* %arg3, i1* %arg4, i1* %arg5), !insn.addr !50
  br label %dec_label_pc_1385, !insn.addr !50

dec_label_pc_1385:                                ; preds = %dec_label_pc_1328, %dec_label_pc_131d
  ret void, !insn.addr !51

; uselistorder directives
  uselistorder i64 %2, { 3, 2, 1, 0 }
  uselistorder i1* %arg5, { 3, 2, 4, 1, 0, 5 }
  uselistorder i1* %arg4, { 3, 2, 1, 0 }
  uselistorder i32* %arg3, { 3, 2, 1, 0 }
  uselistorder i32* %arg2, { 3, 2, 1, 0 }
}

define void @_Z9update_elP10A_expList_RiS1_RbS2_(i64* %arg1, i32* %arg2, i32* %arg3, i1* %arg4, i1* %arg5) local_unnamed_addr {
dec_label_pc_1388:
  %0 = alloca i64
  %1 = load i64, i64* %0
  %2 = load i64, i64* %0
  %3 = load i64, i64* %0
  %4 = load i64, i64* %0
  %5 = ptrtoint i64* %arg1 to i64
  %6 = trunc i64 %1 to i32
  %7 = icmp eq i32 %6, 0, !insn.addr !52
  %8 = icmp eq i1 %7, false, !insn.addr !53
  %9 = trunc i64 %4 to i8
  %10 = trunc i64 %2 to i32
  %11 = trunc i64 %3 to i32
  br i1 %8, label %dec_label_pc_1441, label %dec_label_pc_13b6, !insn.addr !53

dec_label_pc_13b6:                                ; preds = %dec_label_pc_1388
  %12 = icmp eq i8 %9, 0, !insn.addr !54
  br i1 %12, label %dec_label_pc_13d0, label %dec_label_pc_13c1, !insn.addr !55

dec_label_pc_13c1:                                ; preds = %dec_label_pc_13b6
  %13 = add i32 %10, 1, !insn.addr !56
  store i32 %13, i32* %arg2, align 4, !insn.addr !57
  br label %dec_label_pc_13d0, !insn.addr !57

dec_label_pc_13d0:                                ; preds = %dec_label_pc_13b6, %dec_label_pc_13c1
  %14 = add i64 %5, 8, !insn.addr !58
  %15 = inttoptr i64 %14 to i64*, !insn.addr !58
  %16 = load i64, i64* %15, align 8, !insn.addr !58
  %17 = add i64 %5, 16, !insn.addr !59
  %18 = inttoptr i64 %17 to i64*, !insn.addr !59
  %19 = load i64, i64* %18, align 8, !insn.addr !59
  %20 = inttoptr i64 %16 to i64*, !insn.addr !60
  call void @_Z8update_eP6A_exp_RiS1_RbS2_(i64* %20, i32* %arg2, i32* %arg3, i1* %arg4, i1* %arg5), !insn.addr !60
  %21 = inttoptr i64 %19 to i64*, !insn.addr !61
  call void @_Z9update_elP10A_expList_RiS1_RbS2_(i64* %21, i32* %arg2, i32* %arg3, i1* %arg4, i1* %arg5), !insn.addr !61
  %22 = call i32 @_Z3maxIiET_S0_S0_(i32 %11, i32 %10), !insn.addr !62
  store i32 %22, i32* %arg3, align 4, !insn.addr !63
  br label %dec_label_pc_1441, !insn.addr !63

dec_label_pc_1441:                                ; preds = %dec_label_pc_13d0, %dec_label_pc_1388
  %23 = icmp eq i32 %6, 1, !insn.addr !64
  %24 = icmp eq i1 %23, false, !insn.addr !65
  br i1 %24, label %dec_label_pc_14b3, label %dec_label_pc_144c, !insn.addr !65

dec_label_pc_144c:                                ; preds = %dec_label_pc_1441
  %25 = icmp eq i8 %9, 0, !insn.addr !66
  br i1 %25, label %dec_label_pc_1466, label %dec_label_pc_1457, !insn.addr !67

dec_label_pc_1457:                                ; preds = %dec_label_pc_144c
  %26 = add i32 %10, 1, !insn.addr !68
  store i32 %26, i32* %arg2, align 4, !insn.addr !69
  br label %dec_label_pc_1466, !insn.addr !69

dec_label_pc_1466:                                ; preds = %dec_label_pc_144c, %dec_label_pc_1457
  %27 = add i64 %5, 8, !insn.addr !70
  %28 = inttoptr i64 %27 to i64*, !insn.addr !70
  %29 = load i64, i64* %28, align 8, !insn.addr !70
  %30 = inttoptr i64 %29 to i64*, !insn.addr !71
  call void @_Z8update_eP6A_exp_RiS1_RbS2_(i64* %30, i32* %arg2, i32* %arg3, i1* %arg4, i1* %arg5), !insn.addr !71
  %31 = call i32 @_Z3maxIiET_S0_S0_(i32 %11, i32 %10), !insn.addr !72
  store i32 %31, i32* %arg3, align 4, !insn.addr !73
  %32 = bitcast i1* %arg4 to i8*
  store i8 0, i8* %32, align 1, !insn.addr !74
  br label %dec_label_pc_14b3, !insn.addr !74

dec_label_pc_14b3:                                ; preds = %dec_label_pc_1466, %dec_label_pc_1441
  ret void, !insn.addr !75

; uselistorder directives
  uselistorder i64 %5, { 2, 1, 0 }
  uselistorder i64* %0, { 3, 2, 1, 0 }
  uselistorder i1* %arg5, { 2, 1, 0 }
  uselistorder i1* %arg4, { 2, 3, 1, 0 }
  uselistorder i32* %arg3, { 3, 4, 0, 2, 1 }
  uselistorder i32* %arg2, { 4, 3, 2, 1, 0 }
  uselistorder label %dec_label_pc_1466, { 1, 0 }
  uselistorder label %dec_label_pc_13d0, { 1, 0 }
}

define void @_Z8update_sP6A_stm_RiS1_RbS2_(i64* %arg1, i32* %arg2, i32* %arg3, i1* %arg4, i1* %arg5) local_unnamed_addr {
dec_label_pc_14b6:
  %0 = alloca i64
  %1 = load i64, i64* %0
  %2 = load i64, i64* %0
  %3 = load i64, i64* %0
  %4 = ptrtoint i64* %arg1 to i64
  %5 = trunc i64 %1 to i32
  %6 = icmp eq i32 %5, 0, !insn.addr !76
  %7 = icmp eq i1 %6, false, !insn.addr !77
  br i1 %7, label %dec_label_pc_153b, label %dec_label_pc_14e5, !insn.addr !77

dec_label_pc_14e5:                                ; preds = %dec_label_pc_14b6
  %8 = add i64 %4, 8, !insn.addr !78
  %9 = inttoptr i64 %8 to i64*, !insn.addr !78
  %10 = load i64, i64* %9, align 8, !insn.addr !78
  %11 = add i64 %4, 16, !insn.addr !79
  %12 = inttoptr i64 %11 to i64*, !insn.addr !79
  %13 = load i64, i64* %12, align 8, !insn.addr !79
  %14 = inttoptr i64 %10 to i64*, !insn.addr !80
  call void @_Z8update_sP6A_stm_RiS1_RbS2_(i64* %14, i32* %arg2, i32* %arg3, i1* %arg4, i1* %arg5), !insn.addr !80
  %15 = inttoptr i64 %13 to i64*, !insn.addr !81
  call void @_Z8update_sP6A_stm_RiS1_RbS2_(i64* %15, i32* %arg2, i32* %arg3, i1* %arg4, i1* %arg5), !insn.addr !81
  br label %dec_label_pc_153b, !insn.addr !81

dec_label_pc_153b:                                ; preds = %dec_label_pc_14e5, %dec_label_pc_14b6
  %16 = icmp eq i32 %5, 1, !insn.addr !82
  %17 = icmp eq i1 %16, false, !insn.addr !83
  br i1 %17, label %dec_label_pc_156c, label %dec_label_pc_1541, !insn.addr !83

dec_label_pc_1541:                                ; preds = %dec_label_pc_153b
  %18 = add i64 %4, 16, !insn.addr !84
  %19 = inttoptr i64 %18 to i64*, !insn.addr !84
  %20 = load i64, i64* %19, align 8, !insn.addr !84
  %21 = inttoptr i64 %20 to i64*, !insn.addr !85
  call void @_Z8update_eP6A_exp_RiS1_RbS2_(i64* %21, i32* %arg2, i32* %arg3, i1* %arg4, i1* %arg5), !insn.addr !85
  br label %dec_label_pc_156c, !insn.addr !85

dec_label_pc_156c:                                ; preds = %dec_label_pc_1541, %dec_label_pc_153b
  %22 = icmp eq i32 %5, 2, !insn.addr !86
  %23 = icmp eq i1 %22, false, !insn.addr !87
  br i1 %23, label %dec_label_pc_15c9, label %dec_label_pc_1572, !insn.addr !87

dec_label_pc_1572:                                ; preds = %dec_label_pc_156c
  %24 = trunc i64 %2 to i32
  %25 = trunc i64 %3 to i32
  %26 = bitcast i1* %arg4 to i8*
  store i8 1, i8* %26, align 1, !insn.addr !88
  store i32 0, i32* %arg2, align 4, !insn.addr !89
  %27 = add i64 %4, 8, !insn.addr !90
  %28 = inttoptr i64 %27 to i64*, !insn.addr !90
  %29 = load i64, i64* %28, align 8, !insn.addr !90
  %30 = inttoptr i64 %29 to i64*, !insn.addr !91
  call void @_Z9update_elP10A_expList_RiS1_RbS2_(i64* %30, i32* %arg2, i32* %arg3, i1* %arg4, i1* %arg5), !insn.addr !91
  %31 = call i32 @_Z3maxIiET_S0_S0_(i32 %25, i32 %24), !insn.addr !92
  store i32 %31, i32* %arg3, align 4, !insn.addr !93
  br label %dec_label_pc_15c9, !insn.addr !93

dec_label_pc_15c9:                                ; preds = %dec_label_pc_1572, %dec_label_pc_156c
  ret void, !insn.addr !94

; uselistorder directives
  uselistorder i32 %5, { 2, 1, 0 }
  uselistorder i64 %4, { 3, 2, 1, 0 }
  uselistorder i64* %0, { 2, 1, 0 }
  uselistorder i32 (i32, i32)* @_Z3maxIiET_S0_S0_, { 0, 2, 1 }
  uselistorder i8 1, { 1, 0 }
  uselistorder void (i64*, i32*, i32*, i1*, i1*)* @_Z8update_eP6A_exp_RiS1_RbS2_, { 3, 5, 4, 2, 1, 0 }
  uselistorder i1* %arg5, { 3, 2, 1, 0 }
  uselistorder i1* %arg4, { 3, 4, 2, 1, 0 }
  uselistorder i32* %arg3, { 3, 4, 2, 1, 0 }
  uselistorder i32* %arg2, { 3, 4, 2, 1, 0 }
}

define i32 @_Z7maxargsP6A_stm_(i64* %arg1) local_unnamed_addr {
dec_label_pc_15cc:
  %rax.0.reg2mem = alloca i32, !insn.addr !95
  %stack_var_-25 = alloca i8, align 1
  %stack_var_-20 = alloca i32, align 4
  %stack_var_-24 = alloca i32, align 4
  %stack_var_-26 = alloca i8, align 1
  %0 = call i64 @__readfsqword(i64 40), !insn.addr !96
  store i8 0, i8* %stack_var_-26, align 1, !insn.addr !97
  store i32 0, i32* %stack_var_-24, align 4, !insn.addr !98
  store i32 0, i32* %stack_var_-20, align 4, !insn.addr !99
  store i8 0, i8* %stack_var_-25, align 1, !insn.addr !100
  %1 = bitcast i8* %stack_var_-26 to i1*, !insn.addr !101
  %2 = bitcast i8* %stack_var_-25 to i1*, !insn.addr !101
  call void @_Z8update_sP6A_stm_RiS1_RbS2_(i64* %arg1, i32* nonnull %stack_var_-24, i32* nonnull %stack_var_-20, i1* nonnull %1, i1* nonnull %2), !insn.addr !101
  %3 = load i32, i32* %stack_var_-20, align 4, !insn.addr !102
  %4 = call i64 @__readfsqword(i64 40), !insn.addr !103
  %5 = icmp eq i64 %0, %4, !insn.addr !103
  store i32 %3, i32* %rax.0.reg2mem, !insn.addr !104
  br i1 %5, label %dec_label_pc_1637, label %dec_label_pc_1632, !insn.addr !104

dec_label_pc_1632:                                ; preds = %dec_label_pc_15cc
  call void @__stack_chk_fail(), !insn.addr !105
  store i32 ptrtoint (i32* @0 to i32), i32* %rax.0.reg2mem, !insn.addr !105
  br label %dec_label_pc_1637, !insn.addr !105

dec_label_pc_1637:                                ; preds = %dec_label_pc_1632, %dec_label_pc_15cc
  %rax.0.reload = load i32, i32* %rax.0.reg2mem
  ret i32 %rax.0.reload, !insn.addr !106

; uselistorder directives
  uselistorder i32* %stack_var_-20, { 1, 0, 2 }
  uselistorder void (i64*, i32*, i32*, i1*, i1*)* @_Z8update_sP6A_stm_RiS1_RbS2_, { 3, 2, 1, 0 }
  uselistorder i8 0, { 1, 2, 4, 5, 6, 7, 8, 3, 0 }
}

define i32* @_Z6updateP5tablePKci(i64* %arg1, i8* %arg2, i32 %arg3) local_unnamed_addr {
dec_label_pc_1639:
  %0 = ptrtoint i8* %arg2 to i64
  %1 = call i8* @_Z14checked_mallocm(i64 24), !insn.addr !107
  %2 = ptrtoint i8* %1 to i64, !insn.addr !107
  %3 = bitcast i8* %1 to i64*, !insn.addr !108
  store i64 %0, i64* %3, align 8, !insn.addr !108
  %4 = add i64 %2, 8, !insn.addr !109
  %5 = inttoptr i64 %4 to i32*, !insn.addr !109
  store i32 %arg3, i32* %5, align 4, !insn.addr !109
  %6 = ptrtoint i64* %arg1 to i64, !insn.addr !110
  %7 = add i64 %2, 16, !insn.addr !111
  %8 = inttoptr i64 %7 to i64*, !insn.addr !111
  store i64 %6, i64* %8, align 8, !insn.addr !111
  %9 = bitcast i8* %1 to i32*, !insn.addr !112
  ret i32* %9, !insn.addr !112
}

define i32 @_Z6lookupP5tablePKc(i64* %arg1, i8* %arg2) local_unnamed_addr {
dec_label_pc_1685:
  %storemerge.reg2mem = alloca i32, !insn.addr !113
  %storemerge24.reg2mem = alloca i64, !insn.addr !113
  %0 = icmp eq i64* %arg1, null, !insn.addr !114
  %1 = icmp eq i1 %0, false, !insn.addr !115
  store i32 -1, i32* %storemerge.reg2mem, !insn.addr !115
  br i1 %1, label %dec_label_pc_16a3.lr.ph, label %dec_label_pc_16de, !insn.addr !115

dec_label_pc_16a3.lr.ph:                          ; preds = %dec_label_pc_1685
  %2 = ptrtoint i64* %arg1 to i64, !insn.addr !116
  store i64 %2, i64* %storemerge24.reg2mem
  br label %dec_label_pc_16a3

dec_label_pc_16a3:                                ; preds = %dec_label_pc_16a3.lr.ph, %dec_label_pc_16c6
  %storemerge24.reload = load i64, i64* %storemerge24.reg2mem
  %3 = inttoptr i64 %storemerge24.reload to i64*, !insn.addr !117
  %4 = load i64, i64* %3, align 8, !insn.addr !117
  %5 = inttoptr i64 %4 to i8*, !insn.addr !118
  %6 = call i32 @strcmp(i8* %5, i8* %arg2), !insn.addr !118
  %7 = icmp eq i32 %6, 0, !insn.addr !119
  %8 = icmp eq i1 %7, false, !insn.addr !120
  br i1 %8, label %dec_label_pc_16c6, label %dec_label_pc_16bd, !insn.addr !120

dec_label_pc_16bd:                                ; preds = %dec_label_pc_16a3
  %9 = add i64 %storemerge24.reload, 8, !insn.addr !121
  %10 = inttoptr i64 %9 to i32*, !insn.addr !121
  %11 = load i32, i32* %10, align 4, !insn.addr !121
  store i32 %11, i32* %storemerge.reg2mem, !insn.addr !122
  br label %dec_label_pc_16de, !insn.addr !122

dec_label_pc_16c6:                                ; preds = %dec_label_pc_16a3
  %12 = add i64 %storemerge24.reload, 16, !insn.addr !123
  %13 = inttoptr i64 %12 to i64*, !insn.addr !123
  %14 = load i64, i64* %13, align 8, !insn.addr !123
  %15 = icmp eq i64 %14, 0, !insn.addr !114
  %16 = icmp eq i1 %15, false, !insn.addr !115
  store i64 %14, i64* %storemerge24.reg2mem, !insn.addr !115
  store i32 -1, i32* %storemerge.reg2mem, !insn.addr !115
  br i1 %16, label %dec_label_pc_16a3, label %dec_label_pc_16de, !insn.addr !115

dec_label_pc_16de:                                ; preds = %dec_label_pc_16c6, %dec_label_pc_1685, %dec_label_pc_16bd
  %storemerge.reload = load i32, i32* %storemerge.reg2mem
  ret i32 %storemerge.reload, !insn.addr !124

; uselistorder directives
  uselistorder i64 %storemerge24.reload, { 0, 2, 1 }
  uselistorder i64* %storemerge24.reg2mem, { 1, 0, 2 }
  uselistorder i32* %storemerge.reg2mem, { 0, 1, 3, 2 }
  uselistorder i64* %arg1, { 1, 0 }
  uselistorder label %dec_label_pc_16de, { 0, 2, 1 }
  uselistorder label %dec_label_pc_16a3, { 1, 0 }
}

define i32* @_Z9interpStmP6A_stm_P5table(i64* %arg1, i64* %arg2) local_unnamed_addr {
dec_label_pc_16e0:
  %0 = alloca i64
  %rax.0.reg2mem = alloca i64, !insn.addr !125
  %storemerge.in4.reg2mem = alloca i64, !insn.addr !125
  %.lcssa.reg2mem = alloca i32*, !insn.addr !125
  %1 = load i64, i64* %0
  %2 = icmp eq i64* %arg1, null, !insn.addr !126
  %3 = icmp eq i1 %2, false, !insn.addr !127
  store i64 0, i64* %rax.0.reg2mem, !insn.addr !127
  br i1 %3, label %dec_label_pc_1705, label %dec_label_pc_1899, !insn.addr !127

dec_label_pc_1705:                                ; preds = %dec_label_pc_16e0
  %4 = ptrtoint i64* %arg1 to i64
  %5 = trunc i64 %1 to i32
  %6 = call i8* @_Z14checked_mallocm(i64 24), !insn.addr !128
  %7 = call i8* @_Z14checked_mallocm(i64 16), !insn.addr !129
  %8 = icmp eq i32 %5, 2, !insn.addr !130
  br i1 %8, label %dec_label_pc_17cf, label %dec_label_pc_1730, !insn.addr !131

dec_label_pc_1730:                                ; preds = %dec_label_pc_1705
  %9 = icmp sgt i32 %5, 2, !insn.addr !132
  store i64 0, i64* %rax.0.reg2mem, !insn.addr !132
  br i1 %9, label %dec_label_pc_1899, label %dec_label_pc_1739, !insn.addr !132

dec_label_pc_1739:                                ; preds = %dec_label_pc_1730
  store i64 0, i64* %rax.0.reg2mem
  switch i32 %5, label %dec_label_pc_1899 [
    i32 0, label %dec_label_pc_1747
    i32 1, label %dec_label_pc_1786
  ]

dec_label_pc_1747:                                ; preds = %dec_label_pc_1739
  %10 = add i64 %4, 8, !insn.addr !133
  %11 = inttoptr i64 %10 to i64*, !insn.addr !133
  %12 = load i64, i64* %11, align 8, !insn.addr !133
  %13 = inttoptr i64 %12 to i64*, !insn.addr !134
  %14 = call i32* @_Z9interpStmP6A_stm_P5table(i64* %13, i64* %arg2), !insn.addr !134
  %15 = add i64 %4, 16, !insn.addr !135
  %16 = inttoptr i64 %15 to i64*, !insn.addr !135
  %17 = load i64, i64* %16, align 8, !insn.addr !135
  %18 = inttoptr i64 %17 to i64*, !insn.addr !136
  %19 = bitcast i32* %14 to i64*, !insn.addr !136
  %20 = call i32* @_Z9interpStmP6A_stm_P5table(i64* %18, i64* %19), !insn.addr !136
  %21 = ptrtoint i32* %20 to i64, !insn.addr !137
  store i64 %21, i64* %rax.0.reg2mem, !insn.addr !138
  br label %dec_label_pc_1899, !insn.addr !138

dec_label_pc_1786:                                ; preds = %dec_label_pc_1739
  %22 = add i64 %4, 16, !insn.addr !139
  %23 = inttoptr i64 %22 to i64*, !insn.addr !139
  %24 = load i64, i64* %23, align 8, !insn.addr !139
  %25 = inttoptr i64 %24 to i64*, !insn.addr !140
  %26 = call i32* @_Z9interpExpP6A_exp_P5table(i64* %25, i64* %arg2), !insn.addr !140
  %27 = ptrtoint i32* %26 to i64, !insn.addr !140
  %28 = load i32, i32* %26, align 4, !insn.addr !141
  %29 = add i64 %4, 8, !insn.addr !142
  %30 = inttoptr i64 %29 to i64*, !insn.addr !142
  %31 = load i64, i64* %30, align 8, !insn.addr !142
  %32 = add i64 %27, 8, !insn.addr !143
  %33 = inttoptr i64 %32 to i64*, !insn.addr !143
  %34 = load i64, i64* %33, align 8, !insn.addr !143
  %35 = inttoptr i64 %34 to i64*, !insn.addr !144
  %36 = inttoptr i64 %31 to i8*, !insn.addr !144
  %37 = call i32* @_Z6updateP5tablePKci(i64* %35, i8* %36, i32 %28), !insn.addr !144
  %38 = ptrtoint i32* %37 to i64, !insn.addr !145
  store i64 %38, i64* %rax.0.reg2mem, !insn.addr !146
  br label %dec_label_pc_1899, !insn.addr !146

dec_label_pc_17cf:                                ; preds = %dec_label_pc_1705
  %39 = add i64 %4, 8, !insn.addr !147
  %storemerge.in.in1 = inttoptr i64 %39 to i64*
  %storemerge.in2 = load i64, i64* %storemerge.in.in1, align 8
  %storemerge3 = inttoptr i64 %storemerge.in2 to i32*
  %40 = load i32, i32* %storemerge3, align 4, !insn.addr !148
  %41 = icmp eq i32 %40, 1, !insn.addr !149
  %42 = icmp eq i1 %41, false, !insn.addr !150
  %43 = add i64 %storemerge.in2, 8
  %44 = inttoptr i64 %43 to i64*
  %45 = load i64, i64* %44, align 8
  %46 = inttoptr i64 %45 to i64*
  %47 = call i32* @_Z9interpExpP6A_exp_P5table(i64* %46, i64* %arg2)
  store i32* %47, i32** %.lcssa.reg2mem, !insn.addr !150
  store i64 %storemerge.in2, i64* %storemerge.in4.reg2mem, !insn.addr !150
  br i1 %42, label %dec_label_pc_183c, label %dec_label_pc_17e6, !insn.addr !150

dec_label_pc_17e6:                                ; preds = %dec_label_pc_183c, %dec_label_pc_17cf
  %.lcssa.reload = load i32*, i32** %.lcssa.reg2mem
  %48 = ptrtoint i32* %.lcssa.reload to i64, !insn.addr !151
  %49 = call i64 @_ZNSolsEi(i32 ptrtoint (i64* (i64*)** @global_var_5040 to i32)), !insn.addr !152
  %50 = call i64 @_ZNSolsEPFRSoS_E(i64* (i64*)* bitcast (i64* (i64*)** @global_var_5040 to i64* (i64*)*)), !insn.addr !153
  %51 = add i64 %48, 8, !insn.addr !154
  %52 = inttoptr i64 %51 to i64*, !insn.addr !154
  %53 = load i64, i64* %52, align 8, !insn.addr !154
  store i64 %53, i64* %rax.0.reg2mem, !insn.addr !155
  br label %dec_label_pc_1899, !insn.addr !155

dec_label_pc_183c:                                ; preds = %dec_label_pc_17cf, %dec_label_pc_183c
  %storemerge.in4.reload = load i64, i64* %storemerge.in4.reg2mem
  %54 = call i64 @_ZNSolsEi(i32 ptrtoint (i64* (i64*)** @global_var_5040 to i32)), !insn.addr !156
  %55 = inttoptr i64 %54 to i64*, !insn.addr !157
  %56 = call i64 @_ZStlsISt11char_traitsIcEERSt13basic_ostreamIcT_ES5_PKc(i64* %55, i8* getelementptr inbounds ([2 x i8], [2 x i8]* @global_var_3004, i64 0, i64 0)), !insn.addr !157
  %57 = add i64 %storemerge.in4.reload, 16, !insn.addr !158
  %storemerge.in.in = inttoptr i64 %57 to i64*
  %storemerge.in = load i64, i64* %storemerge.in.in, align 8
  %storemerge = inttoptr i64 %storemerge.in to i32*
  %58 = load i32, i32* %storemerge, align 4, !insn.addr !148
  %59 = icmp eq i32 %58, 1, !insn.addr !149
  %60 = icmp eq i1 %59, false, !insn.addr !150
  %61 = add i64 %storemerge.in, 8
  %62 = inttoptr i64 %61 to i64*
  %63 = load i64, i64* %62, align 8
  %64 = inttoptr i64 %63 to i64*
  %65 = call i32* @_Z9interpExpP6A_exp_P5table(i64* %64, i64* %arg2)
  store i32* %65, i32** %.lcssa.reg2mem, !insn.addr !150
  store i64 %storemerge.in, i64* %storemerge.in4.reg2mem, !insn.addr !150
  br i1 %60, label %dec_label_pc_183c, label %dec_label_pc_17e6, !insn.addr !150

dec_label_pc_1899:                                ; preds = %dec_label_pc_1730, %dec_label_pc_1739, %dec_label_pc_16e0, %dec_label_pc_17e6, %dec_label_pc_1786, %dec_label_pc_1747
  %rax.0.reload = load i64, i64* %rax.0.reg2mem
  %66 = inttoptr i64 %rax.0.reload to i32*, !insn.addr !159
  ret i32* %66, !insn.addr !159

; uselistorder directives
  uselistorder i32 %5, { 2, 1, 0 }
  uselistorder i64 %4, { 4, 0, 1, 2, 3 }
  uselistorder i32** %.lcssa.reg2mem, { 1, 0, 2 }
  uselistorder i64* %storemerge.in4.reg2mem, { 2, 0, 1 }
  uselistorder i64* %rax.0.reg2mem, { 0, 6, 4, 5, 2, 1, 3 }
  uselistorder i64* %arg2, { 1, 0, 3, 2 }
  uselistorder i64* %arg1, { 1, 0 }
  uselistorder label %dec_label_pc_1899, { 3, 4, 5, 1, 0, 2 }
  uselistorder label %dec_label_pc_183c, { 1, 0 }
}

define i32* @_Z9interpExpP6A_exp_P5table(i64* %arg1, i64* %arg2) local_unnamed_addr {
dec_label_pc_189b:
  %0 = alloca i64
  %rax.0.reg2mem = alloca i64, !insn.addr !160
  %stack_var_-20.0.reg2mem = alloca i32, !insn.addr !160
  %1 = load i64, i64* %0
  %2 = icmp eq i64* %arg1, null, !insn.addr !161
  %3 = icmp eq i1 %2, false, !insn.addr !162
  store i64 0, i64* %rax.0.reg2mem, !insn.addr !162
  br i1 %3, label %dec_label_pc_18c0, label %dec_label_pc_1a46, !insn.addr !162

dec_label_pc_18c0:                                ; preds = %dec_label_pc_189b
  %4 = trunc i64 %1 to i32
  %5 = call i8* @_Z14checked_mallocm(i64 16), !insn.addr !163
  %6 = icmp eq i32 %4, 3, !insn.addr !164
  br i1 %6, label %dec_label_pc_1a05, label %dec_label_pc_18dd, !insn.addr !165

dec_label_pc_18dd:                                ; preds = %dec_label_pc_18c0
  %7 = icmp sgt i32 %4, 3, !insn.addr !166
  store i64 0, i64* %rax.0.reg2mem, !insn.addr !166
  br i1 %7, label %dec_label_pc_1a46, label %dec_label_pc_18e6, !insn.addr !166

dec_label_pc_18e6:                                ; preds = %dec_label_pc_18dd
  %8 = ptrtoint i64* %arg2 to i64
  %9 = bitcast i8* %5 to i32*
  store i64 0, i64* %rax.0.reg2mem
  switch i32 %4, label %dec_label_pc_1a46 [
    i32 2, label %dec_label_pc_1956
    i32 0, label %dec_label_pc_1902
    i32 1, label %dec_label_pc_1934
  ]

dec_label_pc_1902:                                ; preds = %dec_label_pc_18e6
  %10 = ptrtoint i64* %arg1 to i64, !insn.addr !167
  %11 = add i64 %10, 8, !insn.addr !168
  %12 = inttoptr i64 %11 to i64*, !insn.addr !168
  %13 = load i64, i64* %12, align 8, !insn.addr !168
  %14 = inttoptr i64 %13 to i8*, !insn.addr !169
  %15 = call i32 @_Z6lookupP5tablePKc(i64* %arg2, i8* %14), !insn.addr !169
  store i32 %15, i32* %9, align 4, !insn.addr !170
  %16 = ptrtoint i8* %5 to i64, !insn.addr !171
  %17 = add i64 %16, 8, !insn.addr !172
  %18 = inttoptr i64 %17 to i64*, !insn.addr !172
  store i64 %8, i64* %18, align 8, !insn.addr !172
  store i64 %16, i64* %rax.0.reg2mem, !insn.addr !173
  br label %dec_label_pc_1a46, !insn.addr !173

dec_label_pc_1934:                                ; preds = %dec_label_pc_18e6
  %19 = ptrtoint i64* %arg1 to i64, !insn.addr !174
  %20 = add i64 %19, 8, !insn.addr !175
  %21 = inttoptr i64 %20 to i32*, !insn.addr !175
  %22 = load i32, i32* %21, align 4, !insn.addr !175
  store i32 %22, i32* %9, align 4, !insn.addr !176
  %23 = ptrtoint i8* %5 to i64, !insn.addr !177
  %24 = add i64 %23, 8, !insn.addr !178
  %25 = inttoptr i64 %24 to i64*, !insn.addr !178
  store i64 %8, i64* %25, align 8, !insn.addr !178
  store i64 %23, i64* %rax.0.reg2mem, !insn.addr !179
  br label %dec_label_pc_1a46, !insn.addr !179

dec_label_pc_1956:                                ; preds = %dec_label_pc_18e6
  %26 = ptrtoint i64* %arg1 to i64, !insn.addr !180
  %27 = add i64 %26, 8, !insn.addr !181
  %28 = inttoptr i64 %27 to i64*, !insn.addr !181
  %29 = load i64, i64* %28, align 8, !insn.addr !181
  %30 = inttoptr i64 %29 to i64*, !insn.addr !182
  %31 = call i32* @_Z9interpExpP6A_exp_P5table(i64* %30, i64* %arg2), !insn.addr !182
  %32 = ptrtoint i32* %31 to i64, !insn.addr !182
  %33 = load i32, i32* %31, align 4, !insn.addr !183
  %34 = add i64 %32, 8, !insn.addr !184
  %35 = inttoptr i64 %34 to i64*, !insn.addr !184
  %36 = load i64, i64* %35, align 8, !insn.addr !184
  %37 = add i64 %26, 24, !insn.addr !185
  %38 = inttoptr i64 %37 to i64*, !insn.addr !185
  %39 = load i64, i64* %38, align 8, !insn.addr !185
  %40 = inttoptr i64 %39 to i64*, !insn.addr !186
  %41 = inttoptr i64 %36 to i64*, !insn.addr !186
  %42 = call i32* @_Z9interpExpP6A_exp_P5table(i64* %40, i64* %41), !insn.addr !186
  %43 = add i64 %26, 16, !insn.addr !187
  %44 = inttoptr i64 %43 to i32*, !insn.addr !187
  %45 = load i32, i32* %44, align 4, !insn.addr !187
  %46 = icmp eq i32 %45, 3, !insn.addr !188
  br i1 %46, label %dec_label_pc_19e6, label %dec_label_pc_19a5, !insn.addr !189

dec_label_pc_19a5:                                ; preds = %dec_label_pc_1956
  %47 = icmp sgt i32 %45, 3, !insn.addr !190
  store i32 %33, i32* %stack_var_-20.0.reg2mem, !insn.addr !190
  br i1 %47, label %dec_label_pc_19f6, label %dec_label_pc_19aa, !insn.addr !190

dec_label_pc_19aa:                                ; preds = %dec_label_pc_19a5
  store i32 %33, i32* %stack_var_-20.0.reg2mem
  switch i32 %45, label %dec_label_pc_19f6 [
    i32 2, label %dec_label_pc_19d5
    i32 0, label %dec_label_pc_19bf
    i32 1, label %dec_label_pc_19ca
  ]

dec_label_pc_19bf:                                ; preds = %dec_label_pc_19aa
  %48 = load i32, i32* %42, align 4, !insn.addr !191
  %49 = add i32 %48, %33, !insn.addr !192
  store i32 %49, i32* %stack_var_-20.0.reg2mem, !insn.addr !193
  br label %dec_label_pc_19f6, !insn.addr !193

dec_label_pc_19ca:                                ; preds = %dec_label_pc_19aa
  %50 = load i32, i32* %42, align 4, !insn.addr !194
  %51 = sub i32 %33, %50, !insn.addr !195
  store i32 %51, i32* %stack_var_-20.0.reg2mem, !insn.addr !196
  br label %dec_label_pc_19f6, !insn.addr !196

dec_label_pc_19d5:                                ; preds = %dec_label_pc_19aa
  %52 = load i32, i32* %42, align 4, !insn.addr !197
  %53 = mul i32 %52, %33, !insn.addr !198
  store i32 %53, i32* %stack_var_-20.0.reg2mem, !insn.addr !199
  br label %dec_label_pc_19f6, !insn.addr !199

dec_label_pc_19e6:                                ; preds = %dec_label_pc_1956
  %54 = load i32, i32* %42, align 4, !insn.addr !200
  %55 = ashr i32 %33, 31, !insn.addr !201
  %56 = zext i32 %33 to i64, !insn.addr !202
  %57 = zext i32 %55 to i64, !insn.addr !202
  %58 = mul i64 %57, 4294967296, !insn.addr !202
  %59 = or i64 %58, %56, !insn.addr !202
  %60 = zext i32 %54 to i64, !insn.addr !202
  %61 = sdiv i64 %59, %60, !insn.addr !202
  %62 = trunc i64 %61 to i32, !insn.addr !202
  store i32 %62, i32* %stack_var_-20.0.reg2mem, !insn.addr !203
  br label %dec_label_pc_19f6, !insn.addr !203

dec_label_pc_19f6:                                ; preds = %dec_label_pc_19aa, %dec_label_pc_19e6, %dec_label_pc_19d5, %dec_label_pc_19ca, %dec_label_pc_19bf, %dec_label_pc_19a5
  %stack_var_-20.0.reload = load i32, i32* %stack_var_-20.0.reg2mem
  store i32 %stack_var_-20.0.reload, i32* %42, align 4, !insn.addr !204
  %63 = ptrtoint i32* %42 to i64, !insn.addr !205
  store i64 %63, i64* %rax.0.reg2mem, !insn.addr !206
  br label %dec_label_pc_1a46, !insn.addr !206

dec_label_pc_1a05:                                ; preds = %dec_label_pc_18c0
  %64 = ptrtoint i64* %arg1 to i64, !insn.addr !207
  %65 = add i64 %64, 8, !insn.addr !208
  %66 = inttoptr i64 %65 to i64*, !insn.addr !208
  %67 = load i64, i64* %66, align 8, !insn.addr !208
  %68 = inttoptr i64 %67 to i64*, !insn.addr !209
  %69 = call i32* @_Z9interpStmP6A_stm_P5table(i64* %68, i64* %arg2), !insn.addr !209
  %70 = add i64 %64, 16, !insn.addr !210
  %71 = inttoptr i64 %70 to i64*, !insn.addr !210
  %72 = load i64, i64* %71, align 8, !insn.addr !210
  %73 = inttoptr i64 %72 to i64*, !insn.addr !211
  %74 = bitcast i32* %69 to i64*, !insn.addr !211
  %75 = call i32* @_Z9interpExpP6A_exp_P5table(i64* %73, i64* %74), !insn.addr !211
  %76 = ptrtoint i32* %75 to i64, !insn.addr !211
  store i64 %76, i64* %rax.0.reg2mem, !insn.addr !212
  br label %dec_label_pc_1a46, !insn.addr !212

dec_label_pc_1a46:                                ; preds = %dec_label_pc_18e6, %dec_label_pc_18dd, %dec_label_pc_189b, %dec_label_pc_1a05, %dec_label_pc_19f6, %dec_label_pc_1934, %dec_label_pc_1902
  %rax.0.reload = load i64, i64* %rax.0.reg2mem
  %77 = inttoptr i64 %rax.0.reload to i32*, !insn.addr !213
  ret i32* %77, !insn.addr !213

; uselistorder directives
  uselistorder i32* %42, { 4, 3, 5, 2, 0, 1 }
  uselistorder i32 %33, { 6, 5, 2, 4, 3, 0, 1 }
  uselistorder i8* %5, { 1, 0, 2 }
  uselistorder i32 %4, { 2, 1, 0 }
  uselistorder i32* %stack_var_-20.0.reg2mem, { 0, 6, 4, 2, 3, 1, 5 }
  uselistorder i64* %rax.0.reg2mem, { 0, 7, 6, 4, 5, 1, 2, 3 }
  uselistorder i64* %arg1, { 0, 1, 3, 2, 4 }
  uselistorder label %dec_label_pc_1a46, { 3, 4, 5, 6, 0, 1, 2 }
  uselistorder label %dec_label_pc_19f6, { 1, 2, 3, 4, 0, 5 }
}

define i32* @_Z13interpExpListP10A_expList_P5table(i64* %arg1, i64* %arg2) local_unnamed_addr {
dec_label_pc_1a48:
  %0 = alloca i64
  %rax.0.reg2mem = alloca i64, !insn.addr !214
  %1 = load i64, i64* %0
  %2 = icmp eq i64* %arg1, null, !insn.addr !215
  %3 = icmp eq i1 %2, false, !insn.addr !216
  store i64 0, i64* %rax.0.reg2mem, !insn.addr !216
  br i1 %3, label %dec_label_pc_1a6d, label %dec_label_pc_1af2, !insn.addr !216

dec_label_pc_1a6d:                                ; preds = %dec_label_pc_1a48
  %4 = trunc i64 %1 to i32
  %5 = call i8* @_Z14checked_mallocm(i64 16), !insn.addr !217
  store i64 0, i64* %rax.0.reg2mem
  switch i32 %4, label %dec_label_pc_1af2 [
    i32 0, label %dec_label_pc_1a8c
    i32 1, label %dec_label_pc_1acc
  ]

dec_label_pc_1a8c:                                ; preds = %dec_label_pc_1a6d
  %6 = ptrtoint i64* %arg1 to i64, !insn.addr !218
  %7 = add i64 %6, 8, !insn.addr !219
  %8 = inttoptr i64 %7 to i64*, !insn.addr !219
  %9 = load i64, i64* %8, align 8, !insn.addr !219
  %10 = inttoptr i64 %9 to i64*, !insn.addr !220
  %11 = call i32* @_Z9interpExpP6A_exp_P5table(i64* %10, i64* %arg2), !insn.addr !220
  %12 = ptrtoint i32* %11 to i64, !insn.addr !220
  %13 = add i64 %12, 8, !insn.addr !221
  %14 = inttoptr i64 %13 to i64*, !insn.addr !221
  %15 = load i64, i64* %14, align 8, !insn.addr !221
  %16 = add i64 %6, 16, !insn.addr !222
  %17 = inttoptr i64 %16 to i64*, !insn.addr !222
  %18 = load i64, i64* %17, align 8, !insn.addr !222
  %19 = inttoptr i64 %18 to i64*, !insn.addr !223
  %20 = inttoptr i64 %15 to i64*, !insn.addr !223
  %21 = call i32* @_Z13interpExpListP10A_expList_P5table(i64* %19, i64* %20), !insn.addr !223
  %22 = ptrtoint i32* %21 to i64, !insn.addr !223
  store i64 %22, i64* %rax.0.reg2mem, !insn.addr !224
  br label %dec_label_pc_1af2, !insn.addr !224

dec_label_pc_1acc:                                ; preds = %dec_label_pc_1a6d
  %23 = ptrtoint i64* %arg1 to i64, !insn.addr !225
  %24 = add i64 %23, 8, !insn.addr !226
  %25 = inttoptr i64 %24 to i64*, !insn.addr !226
  %26 = load i64, i64* %25, align 8, !insn.addr !226
  %27 = inttoptr i64 %26 to i64*, !insn.addr !227
  %28 = call i32* @_Z9interpExpP6A_exp_P5table(i64* %27, i64* %arg2), !insn.addr !227
  %29 = ptrtoint i32* %28 to i64, !insn.addr !227
  store i64 %29, i64* %rax.0.reg2mem, !insn.addr !228
  br label %dec_label_pc_1af2, !insn.addr !228

dec_label_pc_1af2:                                ; preds = %dec_label_pc_1a6d, %dec_label_pc_1a48, %dec_label_pc_1acc, %dec_label_pc_1a8c
  %rax.0.reload = load i64, i64* %rax.0.reg2mem
  %30 = inttoptr i64 %rax.0.reload to i32*, !insn.addr !229
  ret i32* %30, !insn.addr !229

; uselistorder directives
  uselistorder i64* %rax.0.reg2mem, { 0, 3, 4, 1, 2 }
  uselistorder i32* (i64*, i64*)* @_Z9interpExpP6A_exp_P5table, { 7, 6, 5, 4, 3, 2, 0, 1 }
  uselistorder i64* %arg2, { 1, 0 }
  uselistorder i64* %arg1, { 1, 0, 2 }
  uselistorder label %dec_label_pc_1af2, { 2, 3, 0, 1 }
}

define void @_Z6interpP6A_stm_(i64* %arg1) local_unnamed_addr {
dec_label_pc_1af4:
  %0 = call i32* @_Z9interpStmP6A_stm_P5table(i64* %arg1, i64* null), !insn.addr !230
  ret void, !insn.addr !231

; uselistorder directives
  uselistorder i32* (i64*, i64*)* @_Z9interpStmP6A_stm_P5table, { 3, 2, 1, 0 }
}

define i32* @_Z14prog_generatorv() local_unnamed_addr {
dec_label_pc_1b18:
  %0 = call i32* @_Z7A_IdExpPKc(i8* getelementptr inbounds ([3 x i8], [3 x i8]* @global_var_3006, i64 0, i64 0)), !insn.addr !232
  %1 = bitcast i32* %0 to i64*, !insn.addr !233
  %2 = call i32* @_Z13A_LastExpListP6A_exp_(i64* %1), !insn.addr !233
  %3 = bitcast i32* %2 to i64*, !insn.addr !234
  %4 = call i32* @_Z10A_PrintStmP10A_expList_(i64* %3), !insn.addr !234
  %5 = call i32* @_Z7A_IdExpPKc(i8* getelementptr inbounds ([2 x i8], [2 x i8]* @global_var_3009, i64 0, i64 0)), !insn.addr !235
  %6 = bitcast i32* %5 to i64*, !insn.addr !236
  %7 = call i32* @_Z13A_LastExpListP6A_exp_(i64* %6), !insn.addr !236
  %8 = bitcast i32* %7 to i64*, !insn.addr !237
  %9 = call i32* @_Z10A_PrintStmP10A_expList_(i64* %8), !insn.addr !237
  %10 = bitcast i32* %9 to i64*, !insn.addr !238
  %11 = bitcast i32* %4 to i64*, !insn.addr !238
  %12 = call i32* @_Z13A_CompoundStmP6A_stm_S0_(i64* %10, i64* %11), !insn.addr !238
  %13 = call i32* @_Z7A_IdExpPKc(i8* getelementptr inbounds ([2 x i8], [2 x i8]* @global_var_300b, i64 0, i64 0)), !insn.addr !239
  %14 = call i32* @_Z8A_NumExpi(i32 10), !insn.addr !240
  %15 = bitcast i32* %14 to i64*, !insn.addr !241
  %16 = bitcast i32* %13 to i64*, !insn.addr !241
  %17 = call i32* @_Z7A_OpExpP6A_exp_7A_binopS0_(i64* %15, i64 2, i64* %16), !insn.addr !241
  %18 = call i32* @_Z8A_NumExpi(i32 1), !insn.addr !242
  %19 = call i32* @_Z7A_IdExpPKc(i8* getelementptr inbounds ([2 x i8], [2 x i8]* @global_var_300b, i64 0, i64 0)), !insn.addr !243
  %20 = bitcast i32* %19 to i64*, !insn.addr !244
  %21 = bitcast i32* %18 to i64*, !insn.addr !244
  %22 = call i32* @_Z7A_OpExpP6A_exp_7A_binopS0_(i64* %20, i64 1, i64* %21), !insn.addr !244
  %23 = bitcast i32* %22 to i64*, !insn.addr !245
  %24 = call i32* @_Z13A_LastExpListP6A_exp_(i64* %23), !insn.addr !245
  %25 = call i32* @_Z7A_IdExpPKc(i8* getelementptr inbounds ([2 x i8], [2 x i8]* @global_var_300b, i64 0, i64 0)), !insn.addr !246
  %26 = bitcast i32* %25 to i64*, !insn.addr !247
  %27 = bitcast i32* %24 to i64*, !insn.addr !247
  %28 = call i32* @_Z13A_PairExpListP6A_exp_P10A_expList_(i64* %26, i64* %27), !insn.addr !247
  %29 = bitcast i32* %28 to i64*, !insn.addr !248
  %30 = call i32* @_Z10A_PrintStmP10A_expList_(i64* %29), !insn.addr !248
  %31 = bitcast i32* %30 to i64*, !insn.addr !249
  %32 = bitcast i32* %17 to i64*, !insn.addr !249
  %33 = call i32* @_Z9A_EseqExpP6A_stm_P6A_exp_(i64* %31, i64* %32), !insn.addr !249
  %34 = bitcast i32* %33 to i64*, !insn.addr !250
  %35 = call i32* @_Z11A_AssignStmPKcP6A_exp_(i8* getelementptr inbounds ([2 x i8], [2 x i8]* @global_var_3009, i64 0, i64 0), i64* %34), !insn.addr !250
  %36 = bitcast i32* %35 to i64*, !insn.addr !251
  %37 = bitcast i32* %12 to i64*, !insn.addr !251
  %38 = call i32* @_Z13A_CompoundStmP6A_stm_S0_(i64* %36, i64* %37), !insn.addr !251
  %39 = call i32* @_Z8A_NumExpi(i32 3), !insn.addr !252
  %40 = call i32* @_Z8A_NumExpi(i32 5), !insn.addr !253
  %41 = bitcast i32* %40 to i64*, !insn.addr !254
  %42 = bitcast i32* %39 to i64*, !insn.addr !254
  %43 = call i32* @_Z7A_OpExpP6A_exp_7A_binopS0_(i64* %41, i64 0, i64* %42), !insn.addr !254
  %44 = bitcast i32* %43 to i64*, !insn.addr !255
  %45 = call i32* @_Z11A_AssignStmPKcP6A_exp_(i8* getelementptr inbounds ([2 x i8], [2 x i8]* @global_var_300b, i64 0, i64 0), i64* %44), !insn.addr !255
  %46 = bitcast i32* %45 to i64*, !insn.addr !256
  %47 = bitcast i32* %38 to i64*, !insn.addr !256
  %48 = call i32* @_Z13A_CompoundStmP6A_stm_S0_(i64* %46, i64* %47), !insn.addr !256
  ret i32* %48, !insn.addr !257
}

define i32* @_Z15prog_generator2v() local_unnamed_addr {
dec_label_pc_1c7a:
  %0 = call i32* @_Z7A_IdExpPKc(i8* getelementptr inbounds ([4 x i8], [4 x i8]* @global_var_300d, i64 0, i64 0)), !insn.addr !258
  %1 = bitcast i32* %0 to i64*, !insn.addr !259
  %2 = call i32* @_Z13A_LastExpListP6A_exp_(i64* %1), !insn.addr !259
  %3 = call i32* @_Z7A_IdExpPKc(i8* getelementptr inbounds ([3 x i8], [3 x i8]* @global_var_3011, i64 0, i64 0)), !insn.addr !260
  %4 = bitcast i32* %3 to i64*, !insn.addr !261
  %5 = bitcast i32* %2 to i64*, !insn.addr !261
  %6 = call i32* @_Z13A_PairExpListP6A_exp_P10A_expList_(i64* %4, i64* %5), !insn.addr !261
  %7 = call i32* @_Z7A_IdExpPKc(i8* getelementptr inbounds ([3 x i8], [3 x i8]* @global_var_3014, i64 0, i64 0)), !insn.addr !262
  %8 = bitcast i32* %7 to i64*, !insn.addr !263
  %9 = bitcast i32* %6 to i64*, !insn.addr !263
  %10 = call i32* @_Z13A_PairExpListP6A_exp_P10A_expList_(i64* %8, i64* %9), !insn.addr !263
  %11 = call i32* @_Z7A_IdExpPKc(i8* getelementptr inbounds ([3 x i8], [3 x i8]* @global_var_3017, i64 0, i64 0)), !insn.addr !264
  %12 = bitcast i32* %11 to i64*, !insn.addr !265
  %13 = bitcast i32* %10 to i64*, !insn.addr !265
  %14 = call i32* @_Z13A_PairExpListP6A_exp_P10A_expList_(i64* %12, i64* %13), !insn.addr !265
  %15 = call i32* @_Z7A_IdExpPKc(i8* getelementptr inbounds ([3 x i8], [3 x i8]* @global_var_301a, i64 0, i64 0)), !insn.addr !266
  %16 = bitcast i32* %15 to i64*, !insn.addr !267
  %17 = bitcast i32* %14 to i64*, !insn.addr !267
  %18 = call i32* @_Z13A_PairExpListP6A_exp_P10A_expList_(i64* %16, i64* %17), !insn.addr !267
  %19 = call i32* @_Z7A_IdExpPKc(i8* getelementptr inbounds ([3 x i8], [3 x i8]* @global_var_301d, i64 0, i64 0)), !insn.addr !268
  %20 = bitcast i32* %19 to i64*, !insn.addr !269
  %21 = bitcast i32* %18 to i64*, !insn.addr !269
  %22 = call i32* @_Z13A_PairExpListP6A_exp_P10A_expList_(i64* %20, i64* %21), !insn.addr !269
  %23 = call i32* @_Z7A_IdExpPKc(i8* getelementptr inbounds ([3 x i8], [3 x i8]* @global_var_3020, i64 0, i64 0)), !insn.addr !270
  %24 = bitcast i32* %23 to i64*, !insn.addr !271
  %25 = bitcast i32* %22 to i64*, !insn.addr !271
  %26 = call i32* @_Z13A_PairExpListP6A_exp_P10A_expList_(i64* %24, i64* %25), !insn.addr !271
  %27 = call i32* @_Z7A_IdExpPKc(i8* getelementptr inbounds ([3 x i8], [3 x i8]* @global_var_3023, i64 0, i64 0)), !insn.addr !272
  %28 = bitcast i32* %27 to i64*, !insn.addr !273
  %29 = bitcast i32* %26 to i64*, !insn.addr !273
  %30 = call i32* @_Z13A_PairExpListP6A_exp_P10A_expList_(i64* %28, i64* %29), !insn.addr !273
  %31 = call i32* @_Z7A_IdExpPKc(i8* getelementptr inbounds ([3 x i8], [3 x i8]* @global_var_3026, i64 0, i64 0)), !insn.addr !274
  %32 = bitcast i32* %31 to i64*, !insn.addr !275
  %33 = bitcast i32* %30 to i64*, !insn.addr !275
  %34 = call i32* @_Z13A_PairExpListP6A_exp_P10A_expList_(i64* %32, i64* %33), !insn.addr !275
  %35 = call i32* @_Z7A_IdExpPKc(i8* getelementptr inbounds ([3 x i8], [3 x i8]* @global_var_3006, i64 0, i64 0)), !insn.addr !276
  %36 = bitcast i32* %35 to i64*, !insn.addr !277
  %37 = bitcast i32* %34 to i64*, !insn.addr !277
  %38 = call i32* @_Z13A_PairExpListP6A_exp_P10A_expList_(i64* %36, i64* %37), !insn.addr !277
  %39 = bitcast i32* %38 to i64*, !insn.addr !278
  %40 = call i32* @_Z10A_PrintStmP10A_expList_(i64* %39), !insn.addr !278
  %41 = call i32* @_Z7A_IdExpPKc(i8* getelementptr inbounds ([2 x i8], [2 x i8]* @global_var_3009, i64 0, i64 0)), !insn.addr !279
  %42 = bitcast i32* %41 to i64*, !insn.addr !280
  %43 = call i32* @_Z13A_LastExpListP6A_exp_(i64* %42), !insn.addr !280
  %44 = bitcast i32* %43 to i64*, !insn.addr !281
  %45 = call i32* @_Z10A_PrintStmP10A_expList_(i64* %44), !insn.addr !281
  %46 = bitcast i32* %45 to i64*, !insn.addr !282
  %47 = bitcast i32* %40 to i64*, !insn.addr !282
  %48 = call i32* @_Z13A_CompoundStmP6A_stm_S0_(i64* %46, i64* %47), !insn.addr !282
  %49 = call i32* @_Z7A_IdExpPKc(i8* getelementptr inbounds ([2 x i8], [2 x i8]* @global_var_300b, i64 0, i64 0)), !insn.addr !283
  %50 = call i32* @_Z8A_NumExpi(i32 10), !insn.addr !284
  %51 = bitcast i32* %50 to i64*, !insn.addr !285
  %52 = bitcast i32* %49 to i64*, !insn.addr !285
  %53 = call i32* @_Z7A_OpExpP6A_exp_7A_binopS0_(i64* %51, i64 2, i64* %52), !insn.addr !285
  %54 = call i32* @_Z8A_NumExpi(i32 1), !insn.addr !286
  %55 = call i32* @_Z7A_IdExpPKc(i8* getelementptr inbounds ([2 x i8], [2 x i8]* @global_var_300b, i64 0, i64 0)), !insn.addr !287
  %56 = bitcast i32* %55 to i64*, !insn.addr !288
  %57 = bitcast i32* %54 to i64*, !insn.addr !288
  %58 = call i32* @_Z7A_OpExpP6A_exp_7A_binopS0_(i64* %56, i64 1, i64* %57), !insn.addr !288
  %59 = bitcast i32* %58 to i64*, !insn.addr !289
  %60 = call i32* @_Z13A_LastExpListP6A_exp_(i64* %59), !insn.addr !289
  %61 = call i32* @_Z7A_IdExpPKc(i8* getelementptr inbounds ([2 x i8], [2 x i8]* @global_var_300b, i64 0, i64 0)), !insn.addr !290
  %62 = bitcast i32* %61 to i64*, !insn.addr !291
  %63 = bitcast i32* %60 to i64*, !insn.addr !291
  %64 = call i32* @_Z13A_PairExpListP6A_exp_P10A_expList_(i64* %62, i64* %63), !insn.addr !291
  %65 = bitcast i32* %64 to i64*, !insn.addr !292
  %66 = call i32* @_Z10A_PrintStmP10A_expList_(i64* %65), !insn.addr !292
  %67 = bitcast i32* %66 to i64*, !insn.addr !293
  %68 = bitcast i32* %53 to i64*, !insn.addr !293
  %69 = call i32* @_Z9A_EseqExpP6A_stm_P6A_exp_(i64* %67, i64* %68), !insn.addr !293
  %70 = bitcast i32* %69 to i64*, !insn.addr !294
  %71 = call i32* @_Z11A_AssignStmPKcP6A_exp_(i8* getelementptr inbounds ([2 x i8], [2 x i8]* @global_var_3009, i64 0, i64 0), i64* %70), !insn.addr !294
  %72 = bitcast i32* %71 to i64*, !insn.addr !295
  %73 = bitcast i32* %48 to i64*, !insn.addr !295
  %74 = call i32* @_Z13A_CompoundStmP6A_stm_S0_(i64* %72, i64* %73), !insn.addr !295
  %75 = call i32* @_Z8A_NumExpi(i32 3), !insn.addr !296
  %76 = call i32* @_Z8A_NumExpi(i32 5), !insn.addr !297
  %77 = bitcast i32* %76 to i64*, !insn.addr !298
  %78 = bitcast i32* %75 to i64*, !insn.addr !298
  %79 = call i32* @_Z7A_OpExpP6A_exp_7A_binopS0_(i64* %77, i64 0, i64* %78), !insn.addr !298
  %80 = bitcast i32* %79 to i64*, !insn.addr !299
  %81 = call i32* @_Z11A_AssignStmPKcP6A_exp_(i8* getelementptr inbounds ([2 x i8], [2 x i8]* @global_var_300b, i64 0, i64 0), i64* %80), !insn.addr !299
  %82 = bitcast i32* %81 to i64*, !insn.addr !300
  %83 = bitcast i32* %74 to i64*, !insn.addr !300
  %84 = call i32* @_Z13A_CompoundStmP6A_stm_S0_(i64* %82, i64* %83), !insn.addr !300
  ret i32* %84, !insn.addr !301

; uselistorder directives
  uselistorder i32* (i8*, i64*)* @_Z11A_AssignStmPKcP6A_exp_, { 3, 2, 1, 0 }
  uselistorder i32* (i64*, i64*)* @_Z9A_EseqExpP6A_stm_P6A_exp_, { 1, 0 }
  uselistorder i32* (i64*, i64, i64*)* @_Z7A_OpExpP6A_exp_7A_binopS0_, { 5, 4, 3, 2, 1, 0 }
  uselistorder i32* (i32)* @_Z8A_NumExpi, { 7, 6, 5, 4, 3, 2, 1, 0 }
  uselistorder i32* (i64*, i64*)* @_Z13A_CompoundStmP6A_stm_S0_, { 5, 4, 3, 2, 1, 0 }
  uselistorder i32* (i64*)* @_Z10A_PrintStmP10A_expList_, { 5, 4, 3, 2, 1, 0 }
  uselistorder i32* (i64*, i64*)* @_Z13A_PairExpListP6A_exp_P10A_expList_, { 10, 9, 8, 7, 6, 5, 4, 3, 2, 1, 0 }
  uselistorder i32* (i64*)* @_Z13A_LastExpListP6A_exp_, { 5, 4, 3, 2, 1, 0 }
  uselistorder i32* (i8*)* @_Z7A_IdExpPKc, { 18, 17, 16, 15, 14, 13, 12, 11, 10, 9, 8, 7, 6, 5, 4, 3, 2, 1, 0 }
}

define i32 @main() local_unnamed_addr {
dec_label_pc_1ee1:
  %0 = call i32* @_Z14prog_generatorv(), !insn.addr !302
  %1 = call i64 @_ZStlsISt11char_traitsIcEERSt13basic_ostreamIcT_ES5_PKc(i64* bitcast (i64* (i64*)** @global_var_5040 to i64*), i8* getelementptr inbounds ([26 x i8], [26 x i8]* @global_var_3029, i64 0, i64 0)), !insn.addr !303
  %2 = bitcast i32* %0 to i64*, !insn.addr !304
  %3 = call i32 @_Z7maxargsP6A_stm_(i64* %2), !insn.addr !304
  %4 = trunc i64 %1 to i32, !insn.addr !305
  %5 = call i64 @_ZNSolsEi(i32 %4), !insn.addr !305
  %6 = inttoptr i64 %5 to i64* (i64*)*, !insn.addr !306
  %7 = call i64 @_ZNSolsEPFRSoS_E(i64* (i64*)* %6), !insn.addr !306
  %8 = call i32* @_Z15prog_generator2v(), !insn.addr !307
  %9 = call i64 @_ZStlsISt11char_traitsIcEERSt13basic_ostreamIcT_ES5_PKc(i64* bitcast (i64* (i64*)** @global_var_5040 to i64*), i8* getelementptr inbounds ([26 x i8], [26 x i8]* @global_var_3043, i64 0, i64 0)), !insn.addr !308
  %10 = bitcast i32* %8 to i64*, !insn.addr !309
  %11 = call i32 @_Z7maxargsP6A_stm_(i64* %10), !insn.addr !309
  %12 = trunc i64 %9 to i32, !insn.addr !310
  %13 = call i64 @_ZNSolsEi(i32 %12), !insn.addr !310
  %14 = inttoptr i64 %13 to i64* (i64*)*, !insn.addr !311
  %15 = call i64 @_ZNSolsEPFRSoS_E(i64* (i64*)* %14), !insn.addr !311
  %16 = call i64 @_ZStlsISt11char_traitsIcEERSt13basic_ostreamIcT_ES5_PKc(i64* bitcast (i64* (i64*)** @global_var_5040 to i64*), i8* getelementptr inbounds ([12 x i8], [12 x i8]* @global_var_305d, i64 0, i64 0)), !insn.addr !312
  call void @_Z6interpP6A_stm_(i64* %2), !insn.addr !313
  %17 = call i64 @_ZStlsISt11char_traitsIcEERSt13basic_ostreamIcT_ES5_PKc(i64* bitcast (i64* (i64*)** @global_var_5040 to i64*), i8* getelementptr inbounds ([12 x i8], [12 x i8]* @global_var_3069, i64 0, i64 0)), !insn.addr !314
  call void @_Z6interpP6A_stm_(i64* %10), !insn.addr !315
  %18 = call i64 @_ZNSolsEPFRSoS_E(i64* (i64*)* bitcast (i64* (i64*)** @global_var_5040 to i64* (i64*)*)), !insn.addr !316
  ret i32 0, !insn.addr !317

; uselistorder directives
  uselistorder void (i64*)* @_Z6interpP6A_stm_, { 1, 0 }
  uselistorder i64 (i64* (i64*)*)* @_ZNSolsEPFRSoS_E, { 3, 2, 1, 0, 4 }
  uselistorder i64 (i32)* @_ZNSolsEi, { 1, 0, 3, 2, 4 }
  uselistorder i32 (i64*)* @_Z7maxargsP6A_stm_, { 1, 0 }
  uselistorder i64 (i64*, i8*)* @_ZStlsISt11char_traitsIcEERSt13basic_ostreamIcT_ES5_PKc, { 4, 3, 2, 1, 0, 5 }
}

define i32 @_Z3maxIiET_S0_S0_(i32 %arg1, i32 %arg2) local_unnamed_addr {
dec_label_pc_1ff6:
  %0 = icmp sgt i32 %arg1, %arg2, !insn.addr !318
  %storemerge.in = select i1 %0, i32 %arg1, i32 %arg2
  ret i32 %storemerge.in, !insn.addr !319
}

define i32* @_Z13A_CompoundStmP6A_stm_S0_(i64* %arg1, i64* %arg2) local_unnamed_addr {
dec_label_pc_2016:
  %0 = ptrtoint i64* %arg2 to i64
  %1 = call i8* @_Z14checked_mallocm(i64 24), !insn.addr !320
  %2 = ptrtoint i8* %1 to i64, !insn.addr !320
  %3 = bitcast i8* %1 to i32*, !insn.addr !321
  store i32 0, i32* %3, align 4, !insn.addr !321
  %4 = ptrtoint i64* %arg1 to i64, !insn.addr !322
  %5 = add i64 %2, 8, !insn.addr !323
  %6 = inttoptr i64 %5 to i64*, !insn.addr !323
  store i64 %4, i64* %6, align 8, !insn.addr !323
  %7 = add i64 %2, 16, !insn.addr !324
  %8 = inttoptr i64 %7 to i64*, !insn.addr !324
  store i64 %0, i64* %8, align 8, !insn.addr !324
  ret i32* %3, !insn.addr !325
}

define i32* @_Z11A_AssignStmPKcP6A_exp_(i8* %arg1, i64* %arg2) local_unnamed_addr {
dec_label_pc_2060:
  %0 = ptrtoint i64* %arg2 to i64
  %1 = call i8* @_Z14checked_mallocm(i64 24), !insn.addr !326
  %2 = ptrtoint i8* %1 to i64, !insn.addr !326
  %3 = bitcast i8* %1 to i32*, !insn.addr !327
  store i32 1, i32* %3, align 4, !insn.addr !327
  %4 = ptrtoint i8* %arg1 to i64, !insn.addr !328
  %5 = add i64 %2, 8, !insn.addr !329
  %6 = inttoptr i64 %5 to i64*, !insn.addr !329
  store i64 %4, i64* %6, align 8, !insn.addr !329
  %7 = add i64 %2, 16, !insn.addr !330
  %8 = inttoptr i64 %7 to i64*, !insn.addr !330
  store i64 %0, i64* %8, align 8, !insn.addr !330
  ret i32* %3, !insn.addr !331
}

define i32* @_Z10A_PrintStmP10A_expList_(i64* %arg1) local_unnamed_addr {
dec_label_pc_20aa:
  %0 = call i8* @_Z14checked_mallocm(i64 24), !insn.addr !332
  %1 = ptrtoint i8* %0 to i64, !insn.addr !332
  %2 = bitcast i8* %0 to i32*, !insn.addr !333
  store i32 2, i32* %2, align 4, !insn.addr !333
  %3 = ptrtoint i64* %arg1 to i64, !insn.addr !334
  %4 = add i64 %1, 8, !insn.addr !335
  %5 = inttoptr i64 %4 to i64*, !insn.addr !335
  store i64 %3, i64* %5, align 8, !insn.addr !335
  ret i32* %2, !insn.addr !336
}

define i32* @_Z7A_IdExpPKc(i8* %arg1) local_unnamed_addr {
dec_label_pc_20e4:
  %0 = call i8* @_Z14checked_mallocm(i64 32), !insn.addr !337
  %1 = ptrtoint i8* %0 to i64, !insn.addr !337
  %2 = bitcast i8* %0 to i32*, !insn.addr !338
  store i32 0, i32* %2, align 4, !insn.addr !338
  %3 = ptrtoint i8* %arg1 to i64, !insn.addr !339
  %4 = add i64 %1, 8, !insn.addr !340
  %5 = inttoptr i64 %4 to i64*, !insn.addr !340
  store i64 %3, i64* %5, align 8, !insn.addr !340
  ret i32* %2, !insn.addr !341
}

define i32* @_Z8A_NumExpi(i32 %arg1) local_unnamed_addr {
dec_label_pc_211e:
  %0 = call i8* @_Z14checked_mallocm(i64 32), !insn.addr !342
  %1 = ptrtoint i8* %0 to i64, !insn.addr !342
  %2 = bitcast i8* %0 to i32*, !insn.addr !343
  store i32 1, i32* %2, align 4, !insn.addr !343
  %3 = add i64 %1, 8, !insn.addr !344
  %4 = inttoptr i64 %3 to i32*, !insn.addr !344
  store i32 %arg1, i32* %4, align 4, !insn.addr !344
  ret i32* %2, !insn.addr !345
}

define i32* @_Z7A_OpExpP6A_exp_7A_binopS0_(i64* %arg1, i64 %arg2, i64* %arg3) local_unnamed_addr {
dec_label_pc_2155:
  %0 = ptrtoint i64* %arg3 to i64
  %1 = trunc i64 %arg2 to i32, !insn.addr !346
  %2 = call i8* @_Z14checked_mallocm(i64 32), !insn.addr !347
  %3 = ptrtoint i8* %2 to i64, !insn.addr !347
  %4 = bitcast i8* %2 to i32*, !insn.addr !348
  store i32 2, i32* %4, align 4, !insn.addr !348
  %5 = ptrtoint i64* %arg1 to i64, !insn.addr !349
  %6 = add i64 %3, 8, !insn.addr !350
  %7 = inttoptr i64 %6 to i64*, !insn.addr !350
  store i64 %5, i64* %7, align 8, !insn.addr !350
  %8 = add i64 %3, 16, !insn.addr !351
  %9 = inttoptr i64 %8 to i32*, !insn.addr !351
  store i32 %1, i32* %9, align 4, !insn.addr !351
  %10 = add i64 %3, 24, !insn.addr !352
  %11 = inttoptr i64 %10 to i64*, !insn.addr !352
  store i64 %0, i64* %11, align 8, !insn.addr !352
  ret i32* %4, !insn.addr !353

; uselistorder directives
  uselistorder i32 2, { 6, 7, 0, 1, 5, 2, 3, 4 }
}

define i32* @_Z9A_EseqExpP6A_stm_P6A_exp_(i64* %arg1, i64* %arg2) local_unnamed_addr {
dec_label_pc_21ac:
  %0 = ptrtoint i64* %arg2 to i64
  %1 = call i8* @_Z14checked_mallocm(i64 32), !insn.addr !354
  %2 = ptrtoint i8* %1 to i64, !insn.addr !354
  %3 = bitcast i8* %1 to i32*, !insn.addr !355
  store i32 3, i32* %3, align 4, !insn.addr !355
  %4 = ptrtoint i64* %arg1 to i64, !insn.addr !356
  %5 = add i64 %2, 8, !insn.addr !357
  %6 = inttoptr i64 %5 to i64*, !insn.addr !357
  store i64 %4, i64* %6, align 8, !insn.addr !357
  %7 = add i64 %2, 16, !insn.addr !358
  %8 = inttoptr i64 %7 to i64*, !insn.addr !358
  store i64 %0, i64* %8, align 8, !insn.addr !358
  ret i32* %3, !insn.addr !359

; uselistorder directives
  uselistorder i32 3, { 7, 0, 1, 5, 2, 6, 3, 4 }
}

define i32* @_Z13A_PairExpListP6A_exp_P10A_expList_(i64* %arg1, i64* %arg2) local_unnamed_addr {
dec_label_pc_21f6:
  %0 = ptrtoint i64* %arg2 to i64
  %1 = call i8* @_Z14checked_mallocm(i64 24), !insn.addr !360
  %2 = ptrtoint i8* %1 to i64, !insn.addr !360
  %3 = bitcast i8* %1 to i32*, !insn.addr !361
  store i32 0, i32* %3, align 4, !insn.addr !361
  %4 = ptrtoint i64* %arg1 to i64, !insn.addr !362
  %5 = add i64 %2, 8, !insn.addr !363
  %6 = inttoptr i64 %5 to i64*, !insn.addr !363
  store i64 %4, i64* %6, align 8, !insn.addr !363
  %7 = add i64 %2, 16, !insn.addr !364
  %8 = inttoptr i64 %7 to i64*, !insn.addr !364
  store i64 %0, i64* %8, align 8, !insn.addr !364
  ret i32* %3, !insn.addr !365

; uselistorder directives
  uselistorder i64 16, { 3, 4, 5, 6, 7, 8, 0, 9, 10, 1, 11, 12, 13, 2, 14, 15, 17, 18, 16, 19, 20 }
  uselistorder i32 0, { 7, 8, 9, 0, 3, 1, 2, 4, 10, 5, 6, 12, 13, 11 }
}

define i32* @_Z13A_LastExpListP6A_exp_(i64* %arg1) local_unnamed_addr {
dec_label_pc_2240:
  %0 = call i8* @_Z14checked_mallocm(i64 24), !insn.addr !366
  %1 = ptrtoint i8* %0 to i64, !insn.addr !366
  %2 = bitcast i8* %0 to i32*, !insn.addr !367
  store i32 1, i32* %2, align 4, !insn.addr !367
  %3 = ptrtoint i64* %arg1 to i64, !insn.addr !368
  %4 = add i64 %1, 8, !insn.addr !369
  %5 = inttoptr i64 %4 to i64*, !insn.addr !369
  store i64 %3, i64* %5, align 8, !insn.addr !369
  ret i32* %2, !insn.addr !370

; uselistorder directives
  uselistorder i64 8, { 1, 2, 3, 4, 5, 6, 7, 8, 9, 10, 11, 12, 13, 14, 15, 16, 17, 18, 19, 20, 21, 0, 22, 23, 24, 25, 26, 27, 30, 31, 28, 29, 32, 33, 34 }
  uselistorder i64 24, { 0, 1, 8, 2, 3, 4, 9, 5, 6, 10, 7 }
}

define i8* @_Z14checked_mallocm(i64 %arg1) local_unnamed_addr {
dec_label_pc_227a:
  %0 = trunc i64 %arg1 to i32, !insn.addr !371
  %1 = call i64* @malloc(i32 %0), !insn.addr !371
  %2 = icmp eq i64* %1, null, !insn.addr !372
  %3 = icmp eq i1 %2, false, !insn.addr !373
  br i1 %3, label %dec_label_pc_22c9, label %dec_label_pc_22a1, !insn.addr !373

dec_label_pc_22a1:                                ; preds = %dec_label_pc_227a
  call void @__assert_fail(i8* getelementptr inbounds ([2 x i8], [2 x i8]* @global_var_30b0, i64 0, i64 0), i8* getelementptr inbounds ([14 x i8], [14 x i8]* @global_var_30a2, i64 0, i64 0), i32 19, i8* getelementptr inbounds ([34 x i8], [34 x i8]* @global_var_3080, i64 0, i64 0)), !insn.addr !374
  br label %dec_label_pc_22c9, !insn.addr !374

dec_label_pc_22c9:                                ; preds = %dec_label_pc_22a1, %dec_label_pc_227a
  %4 = bitcast i64* %1 to i8*
  ret i8* %4, !insn.addr !375

; uselistorder directives
  uselistorder i64* %1, { 1, 0 }
  uselistorder i64 0, { 26, 27, 28, 29, 9, 10, 30, 31, 32, 33, 34, 35, 36, 37, 58, 38, 39, 40, 41, 42, 43, 44, 45, 46, 47, 48, 49, 50, 51, 52, 53, 54, 55, 59, 11, 12, 13, 14, 56, 57, 0, 1, 2, 3, 4, 15, 16, 6, 5, 7, 63, 61, 17, 8, 62, 18, 19, 20, 21, 22, 23, 24, 25, 60 }
  uselistorder i1 false, { 16, 3, 4, 5, 0, 6, 8, 7, 1, 11, 12, 13, 9, 10, 14, 15, 2 }
  uselistorder i64* null, { 1, 2, 3, 4, 5, 0 }
}

define i8* @_Z6StringPKc(i8* %arg1) local_unnamed_addr {
dec_label_pc_22cf:
  %0 = call i32 @strlen(i8* %arg1), !insn.addr !376
  %1 = sext i32 %0 to i64, !insn.addr !376
  %2 = add nsw i64 %1, 1, !insn.addr !377
  %3 = call i8* @_Z14checked_mallocm(i64 %2), !insn.addr !378
  %4 = call i8* @strcpy(i8* %3, i8* %arg1), !insn.addr !379
  ret i8* %3, !insn.addr !380

; uselistorder directives
  uselistorder i8* (i64)* @_Z14checked_mallocm, { 15, 14, 13, 12, 11, 10, 9, 8, 7, 6, 5, 4, 3, 2, 1, 0 }
  uselistorder i64 1, { 2, 0, 1 }
}

define i64 @_fini() local_unnamed_addr {
dec_label_pc_2314:
  %0 = alloca i64
  %1 = load i64, i64* %0
  ret i64 %1, !insn.addr !381

; uselistorder directives
  uselistorder i32 1, { 7, 35, 36, 37, 23, 24, 21, 8, 6, 19, 20, 10, 9, 5, 25, 18, 22, 13, 12, 11, 4, 15, 14, 33, 32, 31, 30, 16, 26, 3, 27, 28, 29, 2, 1, 0, 34, 17 }
}

declare i32 @strlen(i8*) local_unnamed_addr

declare void @__assert_fail(i8*, i8*, i32, i8*) local_unnamed_addr

declare i8* @strcpy(i8*, i8*) local_unnamed_addr

declare i64 @_ZStlsISt11char_traitsIcEERSt13basic_ostreamIcT_ES5_PKc(i64*, i8*) local_unnamed_addr

declare i64 @_ZNSolsEPFRSoS_E(i64* (i64*)*) local_unnamed_addr

declare void @__stack_chk_fail() local_unnamed_addr

declare i64* @malloc(i32) local_unnamed_addr

declare i32 @strcmp(i8*, i8*) local_unnamed_addr

declare i64 @_ZNSolsEi(i32) local_unnamed_addr

declare void @__cxa_finalize(i64*) local_unnamed_addr

declare i32 @__libc_start_main(i64, i32, i8**, void ()*, void ()*, void ()*) local_unnamed_addr

declare void @__gmon_start__() local_unnamed_addr

declare i64 @__asm_hlt() local_unnamed_addr

declare i64 @__readfsqword(i64) local_unnamed_addr

!0 = !{i64 4096}
!1 = !{i64 4104}
!2 = !{i64 4111}
!3 = !{i64 4114}
!4 = !{i64 4116}
!5 = !{i64 4122}
!6 = !{i64 4292}
!7 = !{i64 4308}
!8 = !{i64 4324}
!9 = !{i64 4340}
!10 = !{i64 4356}
!11 = !{i64 4372}
!12 = !{i64 4388}
!13 = !{i64 4404}
!14 = !{i64 4420}
!15 = !{i64 4436}
!16 = !{i64 4479}
!17 = !{i64 4485}
!18 = !{i64 4536}
!19 = !{i64 4600}
!20 = !{i64 4612}
!21 = !{i64 4619}
!22 = !{i64 4622}
!23 = !{i64 4633}
!24 = !{i64 4635}
!25 = !{i64 4642}
!26 = !{i64 4647}
!27 = !{i64 4652}
!28 = !{i64 4660}
!29 = !{i64 4664}
!30 = !{i64 4676}
!31 = !{i64 4709}
!32 = !{i64 4722}
!33 = !{i64 4726}
!34 = !{i64 4736}
!35 = !{i64 4747}
!36 = !{i64 4756}
!37 = !{i64 4795}
!38 = !{i64 4798}
!39 = !{i64 4804}
!40 = !{i64 4811}
!41 = !{i64 4823}
!42 = !{i64 4857}
!43 = !{i64 4888}
!44 = !{i64 4899}
!45 = !{i64 4902}
!46 = !{i64 4908}
!47 = !{i64 4915}
!48 = !{i64 4927}
!49 = !{i64 4961}
!50 = !{i64 4992}
!51 = !{i64 4999}
!52 = !{i64 5038}
!53 = !{i64 5040}
!54 = !{i64 5053}
!55 = !{i64 5055}
!56 = !{i64 5063}
!57 = !{i64 5070}
!58 = !{i64 5076}
!59 = !{i64 5088}
!60 = !{i64 5122}
!61 = !{i64 5153}
!62 = !{i64 5174}
!63 = !{i64 5183}
!64 = !{i64 5191}
!65 = !{i64 5194}
!66 = !{i64 5203}
!67 = !{i64 5205}
!68 = !{i64 5213}
!69 = !{i64 5220}
!70 = !{i64 5226}
!71 = !{i64 5260}
!72 = !{i64 5281}
!73 = !{i64 5290}
!74 = !{i64 5296}
!75 = !{i64 5301}
!76 = !{i64 5343}
!77 = !{i64 5347}
!78 = !{i64 5353}
!79 = !{i64 5365}
!80 = !{i64 5399}
!81 = !{i64 5430}
!82 = !{i64 5435}
!83 = !{i64 5439}
!84 = !{i64 5445}
!85 = !{i64 5479}
!86 = !{i64 5484}
!87 = !{i64 5488}
!88 = !{i64 5494}
!89 = !{i64 5501}
!90 = !{i64 5511}
!91 = !{i64 5545}
!92 = !{i64 5566}
!93 = !{i64 5575}
!94 = !{i64 5579}
!95 = !{i64 5580}
!96 = !{i64 5596}
!97 = !{i64 5611}
!98 = !{i64 5615}
!99 = !{i64 5622}
!100 = !{i64 5629}
!101 = !{i64 5659}
!102 = !{i64 5664}
!103 = !{i64 5671}
!104 = !{i64 5680}
!105 = !{i64 5682}
!106 = !{i64 5688}
!107 = !{i64 5717}
!108 = !{i64 5734}
!109 = !{i64 5744}
!110 = !{i64 5751}
!111 = !{i64 5755}
!112 = !{i64 5764}
!113 = !{i64 5765}
!114 = !{i64 5842}
!115 = !{i64 5847}
!116 = !{i64 5785}
!117 = !{i64 5799}
!118 = !{i64 5812}
!119 = !{i64 5817}
!120 = !{i64 5819}
!121 = !{i64 5825}
!122 = !{i64 5828}
!123 = !{i64 5834}
!124 = !{i64 5855}
!125 = !{i64 5856}
!126 = !{i64 5876}
!127 = !{i64 5881}
!128 = !{i64 5898}
!129 = !{i64 5912}
!130 = !{i64 5927}
!131 = !{i64 5930}
!132 = !{i64 5939}
!133 = !{i64 5963}
!134 = !{i64 5977}
!135 = !{i64 5990}
!136 = !{i64 6004}
!137 = !{i64 6013}
!138 = !{i64 6017}
!139 = !{i64 6026}
!140 = !{i64 6040}
!141 = !{i64 6053}
!142 = !{i64 6059}
!143 = !{i64 6067}
!144 = !{i64 6077}
!145 = !{i64 6086}
!146 = !{i64 6090}
!147 = !{i64 6099}
!148 = !{i64 6111}
!149 = !{i64 6113}
!150 = !{i64 6116}
!151 = !{i64 6136}
!152 = !{i64 6163}
!153 = !{i64 6189}
!154 = !{i64 6198}
!155 = !{i64 6202}
!156 = !{i64 6249}
!157 = !{i64 6270}
!158 = !{i64 6279}
!159 = !{i64 6298}
!160 = !{i64 6299}
!161 = !{i64 6319}
!162 = !{i64 6324}
!163 = !{i64 6341}
!164 = !{i64 6356}
!165 = !{i64 6359}
!166 = !{i64 6368}
!167 = !{i64 6402}
!168 = !{i64 6406}
!169 = !{i64 6420}
!170 = !{i64 6429}
!171 = !{i64 6431}
!172 = !{i64 6439}
!173 = !{i64 6447}
!174 = !{i64 6452}
!175 = !{i64 6456}
!176 = !{i64 6463}
!177 = !{i64 6465}
!178 = !{i64 6473}
!179 = !{i64 6481}
!180 = !{i64 6486}
!181 = !{i64 6490}
!182 = !{i64 6504}
!183 = !{i64 6517}
!184 = !{i64 6526}
!185 = !{i64 6534}
!186 = !{i64 6544}
!187 = !{i64 6557}
!188 = !{i64 6560}
!189 = !{i64 6563}
!190 = !{i64 6568}
!191 = !{i64 6595}
!192 = !{i64 6597}
!193 = !{i64 6600}
!194 = !{i64 6606}
!195 = !{i64 6608}
!196 = !{i64 6611}
!197 = !{i64 6617}
!198 = !{i64 6622}
!199 = !{i64 6628}
!200 = !{i64 6634}
!201 = !{i64 6639}
!202 = !{i64 6640}
!203 = !{i64 6645}
!204 = !{i64 6653}
!205 = !{i64 6655}
!206 = !{i64 6659}
!207 = !{i64 6661}
!208 = !{i64 6665}
!209 = !{i64 6679}
!210 = !{i64 6692}
!211 = !{i64 6706}
!212 = !{i64 6719}
!213 = !{i64 6727}
!214 = !{i64 6728}
!215 = !{i64 6748}
!216 = !{i64 6753}
!217 = !{i64 6770}
!218 = !{i64 6796}
!219 = !{i64 6800}
!220 = !{i64 6814}
!221 = !{i64 6827}
!222 = !{i64 6835}
!223 = !{i64 6845}
!224 = !{i64 6858}
!225 = !{i64 6860}
!226 = !{i64 6864}
!227 = !{i64 6878}
!228 = !{i64 6891}
!229 = !{i64 6899}
!230 = !{i64 6928}
!231 = !{i64 6935}
!232 = !{i64 6963}
!233 = !{i64 6971}
!234 = !{i64 6979}
!235 = !{i64 6997}
!236 = !{i64 7005}
!237 = !{i64 7013}
!238 = !{i64 7024}
!239 = !{i64 7042}
!240 = !{i64 7055}
!241 = !{i64 7071}
!242 = !{i64 7084}
!243 = !{i64 7102}
!244 = !{i64 7118}
!245 = !{i64 7126}
!246 = !{i64 7144}
!247 = !{i64 7155}
!248 = !{i64 7163}
!249 = !{i64 7174}
!250 = !{i64 7192}
!251 = !{i64 7203}
!252 = !{i64 7216}
!253 = !{i64 7229}
!254 = !{i64 7245}
!255 = !{i64 7263}
!256 = !{i64 7274}
!257 = !{i64 7289}
!258 = !{i64 7317}
!259 = !{i64 7325}
!260 = !{i64 7343}
!261 = !{i64 7354}
!262 = !{i64 7372}
!263 = !{i64 7383}
!264 = !{i64 7401}
!265 = !{i64 7412}
!266 = !{i64 7430}
!267 = !{i64 7441}
!268 = !{i64 7459}
!269 = !{i64 7470}
!270 = !{i64 7488}
!271 = !{i64 7499}
!272 = !{i64 7517}
!273 = !{i64 7528}
!274 = !{i64 7546}
!275 = !{i64 7557}
!276 = !{i64 7575}
!277 = !{i64 7586}
!278 = !{i64 7594}
!279 = !{i64 7612}
!280 = !{i64 7620}
!281 = !{i64 7628}
!282 = !{i64 7639}
!283 = !{i64 7657}
!284 = !{i64 7670}
!285 = !{i64 7686}
!286 = !{i64 7699}
!287 = !{i64 7717}
!288 = !{i64 7733}
!289 = !{i64 7741}
!290 = !{i64 7759}
!291 = !{i64 7770}
!292 = !{i64 7778}
!293 = !{i64 7789}
!294 = !{i64 7807}
!295 = !{i64 7818}
!296 = !{i64 7831}
!297 = !{i64 7844}
!298 = !{i64 7860}
!299 = !{i64 7878}
!300 = !{i64 7889}
!301 = !{i64 7904}
!302 = !{i64 7918}
!303 = !{i64 7947}
!304 = !{i64 7962}
!305 = !{i64 7972}
!306 = !{i64 7990}
!307 = !{i64 7995}
!308 = !{i64 8024}
!309 = !{i64 8039}
!310 = !{i64 8049}
!311 = !{i64 8067}
!312 = !{i64 8092}
!313 = !{i64 8104}
!314 = !{i64 8129}
!315 = !{i64 8141}
!316 = !{i64 8166}
!317 = !{i64 8181}
!318 = !{i64 8202}
!319 = !{i64 8213}
!320 = !{i64 8239}
!321 = !{i64 8252}
!322 = !{i64 8262}
!323 = !{i64 8266}
!324 = !{i64 8278}
!325 = !{i64 8287}
!326 = !{i64 8313}
!327 = !{i64 8326}
!328 = !{i64 8336}
!329 = !{i64 8340}
!330 = !{i64 8352}
!331 = !{i64 8361}
!332 = !{i64 8383}
!333 = !{i64 8396}
!334 = !{i64 8406}
!335 = !{i64 8410}
!336 = !{i64 8419}
!337 = !{i64 8441}
!338 = !{i64 8454}
!339 = !{i64 8464}
!340 = !{i64 8468}
!341 = !{i64 8477}
!342 = !{i64 8498}
!343 = !{i64 8511}
!344 = !{i64 8524}
!345 = !{i64 8532}
!346 = !{i64 8549}
!347 = !{i64 8561}
!348 = !{i64 8574}
!349 = !{i64 8584}
!350 = !{i64 8588}
!351 = !{i64 8599}
!352 = !{i64 8610}
!353 = !{i64 8619}
!354 = !{i64 8645}
!355 = !{i64 8658}
!356 = !{i64 8668}
!357 = !{i64 8672}
!358 = !{i64 8684}
!359 = !{i64 8693}
!360 = !{i64 8719}
!361 = !{i64 8732}
!362 = !{i64 8742}
!363 = !{i64 8746}
!364 = !{i64 8758}
!365 = !{i64 8767}
!366 = !{i64 8789}
!367 = !{i64 8802}
!368 = !{i64 8812}
!369 = !{i64 8816}
!370 = !{i64 8825}
!371 = !{i64 8849}
!372 = !{i64 8858}
!373 = !{i64 8863}
!374 = !{i64 8900}
!375 = !{i64 8910}
!376 = !{i64 8934}
!377 = !{i64 8939}
!378 = !{i64 8946}
!379 = !{i64 8969}
!380 = !{i64 8979}
!381 = !{i64 8992}
